(dp0
(I454
I454
tp1
(lp2
(I436
I454
tp3
as(I422
I897
tp4
(lp5
(I402
I895
tp6
as(I1100
I1675
tp7
(lp8
(I1106
I1656
tp9
a(I1096
I1696
tp10
as(I1178
I1741
tp11
(lp12
(I1174
I1763
tp13
a(I1187
I1722
tp14
as(I610
I411
tp15
(lp16
(I589
I410
tp17
a(I632
I414
tp18
as(I131
I922
tp19
(lp20
(I113
I929
tp21
a(I124
I904
tp22
a(I139
I941
tp23
as(I652
I591
tp24
(lp25
(I631
I598
tp26
a(I672
I596
tp27
as(I101
I1898
tp28
(lp29
(I122
I1898
tp30
a(I81
I1898
tp31
as(I1374
I1262
tp32
(lp33
(I1358
I1262
tp34
as(I1390
I1860
tp35
(lp36
(I1393
I1839
tp37
a(I1404
I1872
tp38
as(I94
I936
tp39
(lp40
(I76
I943
tp41
a(I113
I929
tp42
as(I807
I537
tp43
(lp44
(I786
I545
tp45
a(I827
I530
tp46
as(I373
I1803
tp47
(lp48
(I393
I1808
tp49
a(I353
I1797
tp50
as(I1166
I1347
tp51
(lp52
(I1186
I1346
tp53
a(I1147
I1349
tp54
as(I1518
I439
tp55
(lp56
(I1497
I439
tp57
a(I1539
I439
tp58
as(I468
I1454
tp59
(lp60
(I446
I1451
tp61
as(I1819
I950
tp62
(lp63
(I1839
I940
tp64
a(I1800
I960
tp65
as(I1485
I331
tp66
(lp67
(I1503
I336
tp68
a(I1465
I330
tp69
as(I1122
I1191
tp70
(lp71
(I1102
I1192
tp72
a(I1141
I1190
tp73
as(I595
I1394
tp74
(lp75
(I598
I1416
tp76
a(I592
I1373
tp77
as(I1343
I1223
tp78
(lp79
(I1343
I1243
tp80
a(I1343
I1204
tp81
as(I1651
I420
tp82
(lp83
(I1634
I407
tp84
a(I1666
I435
tp85
as(I1392
I1975
tp86
(lp87
(I1410
I1966
tp88
a(I1374
I1985
tp89
as(I1340
I725
tp90
(lp91
(I1359
I715
tp92
a(I1320
I731
tp93
as(I1316
I1659
tp94
(lp95
(I1310
I1637
tp96
a(I1322
I1680
tp97
as(I351
I313
tp98
(lp99
(I371
I309
tp100
a(I330
I315
tp101
as(I758
I235
tp102
(lp103
(I765
I214
tp104
a(I748
I254
tp105
as(I906
I1731
tp106
(lp107
(I916
I1750
tp108
a(I920
I1718
tp109
as(I123
I1495
tp110
(lp111
(I123
I1473
tp112
a(I128
I1516
tp113
as(I401
I454
tp114
(lp115
(I419
I454
tp116
a(I397
I438
tp117
a(I406
I473
tp118
as(I442
I256
tp119
(lp120
(I441
I278
tp121
a(I423
I259
tp122
a(I439
I236
tp123
a(I464
I254
tp124
as(I331
I1641
tp125
(lp126
(I346
I1654
tp127
a(I321
I1621
tp128
as(I302
I1560
tp129
(lp130
(I307
I1581
tp131
a(I302
I1538
tp132
as(I1136
I571
tp133
(lp134
(I1156
I571
tp135
a(I1116
I573
tp136
as(I1659
I258
tp137
(lp138
(I1671
I269
tp139
a(I1662
I237
tp140
as(I331
I1734
tp141
(lp142
(I352
I1737
tp143
a(I312
I1727
tp144
as(I1476
I608
tp145
(lp146
(I1498
I608
tp147
a(I1454
I608
tp148
as(I835
I1999
tp149
(lp150
(I856
I2006
tp151
a(I815
I1991
tp152
as(I1501
I1778
tp153
(lp154
(I1505
I1799
tp155
a(I1495
I1758
tp156
as(I694
I429
tp157
(lp158
(I674
I422
tp159
a(I715
I430
tp160
as(I738
I1666
tp161
(lp162
(I743
I1687
tp163
a(I728
I1647
tp164
as(I44
I1990
tp165
(lp166
(I54
I1987
tp167
as(I96
I1297
tp168
(lp169
(I74
I1296
tp170
a(I116
I1290
tp171
as(I282
I613
tp172
(lp173
(I282
I592
tp174
a(I265
I622
tp175
as(I339
I620
tp176
(lp177
(I358
I612
tp178
a(I324
I634
tp179
as(I192
I1994
tp180
(lp181
(I196
I2013
tp182
a(I176
I1985
tp183
as(I1691
I329
tp184
(lp185
(I1697
I349
tp186
a(I1671
I324
tp187
as(I607
I1504
tp188
(lp189
(I608
I1527
tp190
a(I605
I1483
tp191
as(I247
I1670
tp192
(lp193
(I250
I1682
tp194
a(I246
I1657
tp195
as(I1749
I632
tp196
(lp197
(I1749
I652
tp198
a(I1749
I612
tp199
as(I1074
I1792
tp200
(lp201
(I1082
I1778
tp202
a(I1062
I1804
tp203
as(I525
I718
tp204
(lp205
(I546
I721
tp206
a(I506
I711
tp207
as(I177
I288
tp208
(lp209
(I156
I287
tp210
a(I199
I289
tp211
as(I981
I1380
tp212
(lp213
(I1002
I1371
tp214
a(I960
I1384
tp215
as(I236
I760
tp216
(lp217
(I229
I739
tp218
a(I244
I779
tp219
as(I406
I1415
tp220
(lp221
(I409
I1394
tp222
a(I395
I1433
tp223
as(I115
I1635
tp224
(lp225
(I96
I1628
tp226
a(I135
I1644
tp227
as(I910
I791
tp228
(lp229
(I899
I809
tp230
a(I926
I778
tp231
as(I490
I1257
tp232
(lp233
(I507
I1272
tp234
a(I472
I1245
tp235
as(I1997
I459
tp236
(lp237
(I1991
I439
tp238
as(I1086
I1761
tp239
(lp240
(I1089
I1745
tp241
a(I1082
I1778
tp242
as(I957
I126
tp243
(lp244
(I943
I110
tp245
a(I968
I145
tp246
as(I1901
I111
tp247
(lp248
(I1921
I120
tp249
a(I1880
I109
tp250
as(I547
I309
tp251
(lp252
(I530
I322
tp253
a(I564
I296
tp254
as(I1337
I1690
tp255
(lp256
(I1343
I1710
tp257
a(I1322
I1680
tp258
a(I1332
I1673
tp259
as(I1372
I1492
tp260
(lp261
(I1389
I1492
tp262
a(I1354
I1494
tp263
asg109
(lp264
(I906
I1731
tp265
a(I938
I1707
tp266
as(I150
I1035
tp267
(lp268
(I159
I1017
tp269
a(I147
I1054
tp270
as(I1474
I206
tp271
(lp272
(I1494
I201
tp273
a(I1458
I192
tp274
as(I1512
I421
tp275
(lp276
(I1494
I429
tp277
a(I1531
I412
tp278
as(I266
I1564
tp279
(lp280
(I269
I1584
tp281
a(I266
I1542
tp282
asg23
(lp283
(I131
I922
tp284
a(I147
I960
tp285
as(I909
I535
tp286
(lp287
(I930
I530
tp288
a(I888
I537
tp289
as(I1337
I625
tp290
(lp291
(I1356
I625
tp292
a(I1319
I625
tp293
as(I1639
I702
tp294
(lp295
(I1648
I721
tp296
a(I1621
I693
tp297
as(I1593
I493
tp298
(lp299
(I1614
I490
tp300
a(I1573
I499
tp301
as(I1186
I1366
tp302
(lp303
(I1186
I1346
tp304
a(I1187
I1385
tp305
as(I1319
I2000
tp306
(lp307
(I1338
I2004
tp308
a(I1317
I1992
tp309
a(I1302
I2004
tp310
as(I590
I328
tp311
(lp312
(I602
I312
tp313
a(I577
I344
tp314
as(I688
I496
tp315
(lp316
(I667
I503
tp317
a(I709
I491
tp318
as(I1614
I606
tp319
(lp320
(I1597
I593
tp321
a(I1634
I613
tp322
as(I453
I1619
tp323
(lp324
(I460
I1618
tp325
a(I446
I1619
tp326
as(I236
I1893
tp327
(lp328
(I254
I1892
tp329
a(I218
I1893
tp330
as(I315
I1994
tp331
(lp332
(I302
I1978
tp333
a(I327
I2013
tp334
as(I1274
I254
tp335
(lp336
(I1268
I246
tp337
a(I1278
I263
tp338
as(I1561
I149
tp339
(lp340
(I1544
I162
tp341
a(I1580
I142
tp342
as(I1068
I777
tp343
(lp344
(I1077
I764
tp345
as(I767
I1470
tp346
(lp347
(I773
I1492
tp348
a(I761
I1450
tp349
as(I1730
I874
tp350
(lp351
(I1750
I883
tp352
a(I1709
I867
tp353
as(I110
I1820
tp354
(lp355
(I129
I1830
tp356
a(I89
I1814
tp357
as(I1360
I1515
tp358
(lp359
(I1354
I1494
tp360
a(I1370
I1534
tp361
as(I921
I1279
tp362
(lp363
(I942
I1276
tp364
a(I900
I1281
tp365
asg128
(lp366
(I331
I1641
tp367
a(I314
I1601
tp368
as(I64
I1368
tp369
(lp370
(I75
I1386
tp371
a(I43
I1371
tp372
a(I64
I1349
tp373
as(I730
I361
tp374
(lp375
(I741
I379
tp376
a(I716
I345
tp377
as(I77
I1620
tp378
(lp379
(I57
I1612
tp380
a(I96
I1628
tp381
as(I154
I979
tp382
(lp383
(I147
I960
tp384
a(I162
I999
tp385
as(I190
I1933
tp386
(lp387
(I169
I1938
tp388
a(I210
I1932
tp389
as(I416
I187
tp390
(lp391
(I401
I187
tp392
a(I416
I167
tp393
a(I437
I189
tp394
as(I1044
I1196
tp395
(lp396
(I1024
I1197
tp397
a(I1064
I1195
tp398
asg337
(lp399
g335
a(I1278
I234
tp400
a(I1261
I243
tp401
as(I268
I706
tp402
(lp403
(I252
I692
tp404
a(I283
I722
tp405
as(I355
I958
tp406
(lp407
(I376
I958
tp408
a(I333
I958
tp409
as(I1422
I579
tp410
(lp411
(I1416
I594
tp412
a(I1428
I564
tp413
as(I1663
I810
tp414
(lp415
(I1672
I791
tp416
as(I271
I1148
tp417
(lp418
(I271
I1129
tp419
a(I293
I1148
tp420
a(I271
I1169
tp421
as(I231
I1932
tp422
(lp423
(I210
I1932
tp424
a(I252
I1934
tp425
as(I784
I1534
tp426
(lp427
(I795
I1553
tp428
a(I777
I1513
tp429
as(I180
I1533
tp430
(lp431
(I200
I1526
tp432
a(I160
I1539
tp433
as(I1435
I550
tp434
(lp435
(I1441
I534
tp436
a(I1428
I564
tp437
as(I1410
I677
tp438
(lp439
(I1430
I668
tp440
a(I1393
I690
tp441
as(I1432
I917
tp442
(lp443
(I1449
I904
tp444
a(I1413
I928
tp445
as(I352
I1888
tp446
(lp447
(I372
I1888
tp448
a(I332
I1889
tp449
a(I352
I1872
tp450
a(I352
I1910
tp451
as(I1200
I1482
tp452
(lp453
(I1221
I1478
tp454
a(I1181
I1492
tp455
a(I1211
I1494
tp456
asg454
(lp457
g452
a(I1242
I1480
tp458
as(I1155
I1588
tp459
(lp460
(I1140
I1578
tp461
as(I1999
I1949
tp462
(lp463
(I1990
I1931
tp464
a(I2006
I1969
tp465
as(I1909
I1804
tp466
(lp467
(I1915
I1825
tp468
a(I1903
I1782
tp469
as(I1732
I613
tp470
(lp471
(I1749
I612
tp472
a(I1715
I613
tp473
as(I372
I1888
tp474
(lp475
(I392
I1888
tp476
ag446
as(I1795
I927
tp477
(lp478
(I1810
I911
tp479
a(I1776
I932
tp480
as(I198
I985
tp481
(lp482
(I180
I992
tp483
a(I216
I978
tp484
as(I323
I1129
tp485
(lp486
(I315
I1147
tp487
a(I333
I1116
tp488
as(I712
I1501
tp489
(lp490
(I713
I1479
tp491
a(I710
I1523
tp492
as(I1679
I1779
tp493
(lp494
(I1678
I1759
tp495
a(I1676
I1798
tp496
as(I577
I1835
tp497
(lp498
(I589
I1818
tp499
a(I565
I1853
tp500
as(I1669
I1834
tp501
(lp502
(I1666
I1812
tp503
a(I1670
I1856
tp504
as(I1489
I1738
tp505
(lp506
(I1479
I1718
tp507
a(I1495
I1758
tp508
a(I1509
I1736
tp509
as(I1975
I917
tp510
(lp511
(I1995
I921
tp512
a(I1958
I908
tp513
as(I1673
I883
tp514
(lp515
(I1653
I889
tp516
a(I1692
I878
tp517
as(I79
I1873
tp518
(lp519
(I66
I1856
tp520
a(I98
I1885
tp521
as(I667
I503
tp522
(lp523
(I646
I500
tp524
ag315
as(I502
I1570
tp525
(lp526
(I502
I1586
tp527
asg27
(lp528
(I652
I591
tp529
a(I693
I597
tp530
as(I213
I700
tp531
(lp532
(I206
I679
tp533
a(I221
I719
tp534
as(I622
I114
tp535
(lp536
(I644
I115
tp537
a(I601
I115
tp538
as(I183
I1847
tp539
(lp540
(I192
I1837
tp541
a(I170
I1849
tp542
as(I1285
I1422
tp543
(lp544
(I1273
I1412
tp545
a(I1304
I1421
tp546
as(I1228
I1539
tp547
(lp548
(I1228
I1519
tp549
a(I1228
I1560
tp550
as(I1477
I1942
tp551
(lp552
(I1489
I1959
tp553
a(I1490
I1924
tp554
as(I1561
I611
tp555
(lp556
(I1540
I608
tp557
a(I1563
I632
tp558
as(I1062
I1776
tp559
(lp560
(I1069
I1761
tp561
a(I1056
I1774
tp562
a(I1054
I1781
tp563
as(I312
I307
tp564
(lp565
(I330
I315
tp566
a(I301
I290
tp567
as(I1840
I880
tp568
(lp569
(I1855
I864
tp570
a(I1825
I895
tp571
as(I404
I259
tp572
(lp573
(I423
I259
tp574
a(I385
I260
tp575
as(I1511
I518
tp576
(lp577
(I1532
I512
tp578
a(I1490
I524
tp579
as(I2009
I815
tp580
(lp581
(I1989
I817
tp582
as(I1519
I604
tp583
(lp584
(I1534
I592
tp585
a(I1498
I608
tp586
a(I1540
I608
tp587
as(I589
I410
tp588
(lp589
(I569
I416
tp590
ag15
as(I262
I175
tp591
(lp592
(I284
I174
tp593
a(I240
I175
tp594
as(I602
I312
tp595
(lp596
(I615
I295
tp597
ag311
as(I158
I1914
tp598
(lp599
(I173
I1931
tp600
a(I143
I1898
tp601
as(I1028
I137
tp602
(lp603
(I1015
I118
tp604
a(I1041
I154
tp605
as(I1120
I1541
tp606
(lp607
(I1140
I1544
tp608
a(I1109
I1560
tp609
as(I92
I589
tp610
(lp611
(I99
I606
tp612
as(I165
I1793
tp613
(lp614
(I147
I1796
tp615
a(I176
I1787
tp616
a(I151
I1807
tp617
as(I254
I1767
tp618
(lp619
(I273
I1774
tp620
a(I234
I1760
tp621
as(I259
I1033
tp622
(lp623
(I262
I1054
tp624
a(I255
I1011
tp625
as(I1115
I1476
tp626
(lp627
(I1115
I1461
tp628
a(I1111
I1497
tp629
a(I1092
I1477
tp630
asg401
(lp631
(I1268
I246
tp632
a(I1254
I243
tp633
as(I763
I904
tp634
(lp635
(I750
I920
tp636
a(I775
I886
tp637
as(I155
I340
tp638
(lp639
(I136
I336
tp640
a(I176
I341
tp641
as(I1415
I409
tp642
(lp643
(I1434
I409
tp644
a(I1397
I409
tp645
as(I253
I90
tp646
(lp647
(I231
I89
tp648
a(I275
I90
tp649
as(I511
I331
tp650
(lp651
(I489
I334
tp652
a(I530
I322
tp653
as(I795
I1594
tp654
(lp655
(I787
I1614
tp656
a(I801
I1573
tp657
as(I1025
I1783
tp658
(lp659
(I1005
I1787
tp660
a(I1045
I1787
tp661
as(I1333
I348
tp662
(lp663
(I1321
I331
tp664
a(I1346
I363
tp665
as(I692
I1632
tp666
(lp667
(I688
I1644
tp668
a(I711
I1637
tp669
a(I697
I1610
tp670
as(I1747
I1762
tp671
(lp672
(I1728
I1762
tp673
as(I1749
I671
tp674
(lp675
(I1749
I691
tp676
a(I1749
I652
tp677
as(I545
I126
tp678
(lp679
(I531
I141
tp680
a(I559
I112
tp681
as(I1942
I323
tp682
(lp683
(I1928
I307
tp684
a(I1954
I340
tp685
as(I508
I255
tp686
(lp687
(I486
I254
tp688
a(I531
I255
tp689
as(I271
I1719
tp690
(lp691
(I289
I1731
tp692
a(I257
I1702
tp693
as(I303
I1494
tp694
(lp695
(I303
I1516
tp696
a(I291
I1477
tp697
as(I165
I1088
tp698
(lp699
(I153
I1073
tp700
a(I185
I1091
tp701
as(I1784
I716
tp702
(lp703
(I1767
I703
tp704
a(I1801
I728
tp705
as(I1434
I1851
tp706
(lp707
(I1413
I1845
tp708
a(I1454
I1855
tp709
as(I273
I1919
tp710
(lp711
(I273
I1905
tp712
as(I1787
I1910
tp713
(lp714
(I1765
I1911
tp715
a(I1810
I1910
tp716
as(I869
I99
tp717
(lp718
(I852
I109
tp719
a(I887
I90
tp720
as(I1024
I310
tp721
(lp722
(I1038
I293
tp723
a(I1021
I331
tp724
as(I417
I343
tp725
(lp726
(I425
I330
tp727
a(I409
I357
tp728
as(I1396
I340
tp729
(lp730
(I1413
I331
tp731
a(I1380
I348
tp732
as(I1406
I1418
tp733
(lp734
(I1388
I1415
tp735
a(I1425
I1417
tp736
as(I342
I92
tp737
(lp738
(I319
I91
tp739
a(I346
I109
tp740
as(I1106
I1675
tp741
(lp742
(I1106
I1656
tp743
a(I1102
I1694
tp744
as(I331
I272
tp745
(lp746
(I347
I264
tp747
a(I316
I281
tp748
as(I1457
I499
tp749
(lp750
(I1466
I479
tp751
a(I1448
I519
tp752
as(I948
I1218
tp753
(lp754
(I951
I1199
tp755
a(I948
I1237
tp756
as(I347
I176
tp757
(lp758
(I347
I153
tp759
a(I347
I198
tp760
as(I844
I722
tp761
(lp762
(I841
I702
tp763
a(I833
I740
tp764
as(I204
I1086
tp765
(lp766
(I221
I1084
tp767
a(I205
I1070
tp768
a(I185
I1091
tp769
as(I212
I1928
tp770
(lp771
(I225
I1945
tp772
a(I199
I1911
tp773
as(I1312
I585
tp774
(lp775
(I1300
I603
tp776
a(I1324
I568
tp777
as(I1203
I727
tp778
(lp779
(I1188
I712
tp780
a(I1219
I740
tp781
as(I824
I1749
tp782
(lp783
(I811
I1767
tp784
a(I832
I1729
tp785
asg441
(lp786
(I1410
I677
tp787
a(I1376
I702
tp788
as(I1181
I1193
tp789
(lp790
(I1161
I1190
tp791
a(I1200
I1192
tp792
as(I218
I1893
tp793
(lp794
(I210
I1894
tp795
a(I236
I1893
tp796
a(I232
I1905
tp797
a(I206
I1882
tp798
as(I1870
I456
tp799
(lp800
(I1877
I476
tp801
a(I1859
I437
tp802
as(I344
I398
tp803
(lp804
(I324
I395
tp805
a(I362
I396
tp806
as(I569
I416
tp807
(lp808
(I548
I414
tp809
ag588
as(I129
I1830
tp810
(lp811
(I145
I1844
tp812
ag354
as(I1140
I1544
tp813
(lp814
(I1153
I1525
tp815
a(I1132
I1555
tp816
ag606
asg405
(lp817
(I268
I706
tp818
a(I295
I739
tp819
as(I1958
I233
tp820
(lp821
(I1941
I219
tp822
a(I1974
I248
tp823
as(I433
I1146
tp824
(lp825
(I430
I1168
tp826
a(I424
I1126
tp827
as(I734
I270
tp828
(lp829
(I748
I254
tp830
a(I715
I280
tp831
as(I200
I1526
tp832
(lp833
(I220
I1521
tp834
ag430
as(I677
I1914
tp835
(lp836
(I681
I1931
tp837
a(I682
I1898
tp838
as(I196
I342
tp839
(lp840
(I176
I341
tp841
a(I216
I343
tp842
as(I782
I1635
tp843
(lp844
(I788
I1656
tp845
a(I787
I1614
tp846
as(I996
I1801
tp847
(lp848
(I1005
I1787
tp849
a(I984
I1811
tp850
as(I238
I1961
tp851
(lp852
(I251
I1979
tp853
a(I225
I1945
tp854
asg334
(lp855
(I315
I1994
tp856
a(I355
I1999
tp857
as(I1434
I409
tp858
(lp859
(I1452
I411
tp860
ag642
as(I1279
I743
tp861
(lp862
(I1299
I737
tp863
a(I1258
I749
tp864
as(I1357
I378
tp865
(lp866
(I1369
I393
tp867
a(I1346
I363
tp868
as(I1677
I614
tp869
(lp870
(I1655
I613
tp871
a(I1698
I614
tp872
as(I899
I809
tp873
(lp874
(I887
I826
tp875
ag228
as(I579
I115
tp876
(lp877
(I601
I115
tp878
a(I559
I112
tp879
as(I1650
I328
tp880
(lp881
(I1671
I324
tp882
a(I1629
I331
tp883
as(I1022
I1362
tp884
(lp885
(I1044
I1358
tp886
a(I1002
I1371
tp887
as(I110
I1724
tp888
(lp889
(I110
I1722
tp890
a(I111
I1745
tp891
a(I129
I1726
tp892
as(I189
I1895
tp893
(lp894
(I201
I1895
tp895
a(I177
I1895
tp896
as(I1452
I1659
tp897
(lp898
(I1443
I1640
tp899
a(I1461
I1679
tp900
as(I269
I1584
tp901
(lp902
(I278
I1603
tp903
ag279
as(I1563
I653
tp904
(lp905
(I1563
I632
tp906
a(I1558
I673
tp907
as(I1461
I1982
tp908
(lp909
(I1477
I1973
tp910
a(I1445
I1992
tp911
as(I130
I1952
tp912
(lp913
(I111
I1960
tp914
a(I150
I1945
tp915
as(I917
I746
tp916
(lp917
(I936
I753
tp918
a(I907
I729
tp919
as(I194
I1870
tp920
(lp921
(I190
I1867
tp922
a(I206
I1882
tp923
a(I195
I1853
tp924
as(I754
I1429
tp925
(lp926
(I761
I1450
tp927
a(I747
I1408
tp928
as(I938
I1811
tp929
(lp930
(I950
I1823
tp931
a(I949
I1800
tp932
as(I1097
I362
tp933
(lp934
(I1075
I361
tp935
a(I1119
I358
tp936
as(I624
I495
tp937
(lp938
(I603
I491
tp939
a(I646
I500
tp940
as(I425
I1625
tp941
(lp942
(I446
I1619
tp943
a(I406
I1635
tp944
as(I1338
I2004
tp945
(lp946
(I1356
I1994
tp947
ag306
as(I1936
I1879
tp948
(lp949
(I1930
I1865
tp950
a(I1943
I1893
tp951
as(I1678
I59
tp952
(lp953
(I1694
I74
tp954
a(I1665
I43
tp955
as(I1301
I1073
tp956
(lp957
(I1321
I1064
tp958
a(I1282
I1083
tp959
as(I1802
I233
tp960
(lp961
(I1807
I217
tp962
a(I1785
I240
tp963
a(I1823
I236
tp964
as(I1749
I691
tp965
(lp966
(I1767
I703
tp967
a(I1749
I713
tp968
ag674
as(I366
I363
tp969
(lp970
(I345
I359
tp971
a(I388
I367
tp972
as(I1551
I1739
tp973
(lp974
(I1530
I1738
tp975
a(I1572
I1741
tp976
as(I211
I400
tp977
(lp978
(I194
I391
tp979
a(I229
I402
tp980
asg512
(lp981
g510
as(I1181
I109
tp982
(lp983
(I1202
I114
tp984
a(I1162
I99
tp985
as(I949
I1933
tp986
(lp987
(I943
I1912
tp988
a(I959
I1951
tp989
asg456
(lp990
(I1200
I1482
tp991
a(I1224
I1502
tp992
as(I1212
I255
tp993
(lp994
(I1191
I260
tp995
a(I1233
I249
tp996
as(I1807
I309
tp997
(lp998
(I1787
I305
tp999
a(I1826
I317
tp1000
as(I1848
I1978
tp1001
(lp1002
(I1848
I1996
tp1003
a(I1852
I1960
tp1004
as(I847
I1797
tp1005
(lp1006
(I839
I1813
tp1007
a(I868
I1792
tp1008
asg781
(lp1009
(I1203
I727
tp1010
a(I1237
I749
tp1011
as(I1580
I142
tp1012
(lp1013
(I1595
I127
tp1014
a(I1600
I149
tp1015
a(I1561
I149
tp1016
asg211
(lp1017
(I177
I288
tp1018
a(I218
I299
tp1019
a(I215
I278
tp1020
as(I1838
I562
tp1021
(lp1022
(I1851
I577
tp1023
a(I1833
I543
tp1024
as(I520
I586
tp1025
(lp1026
(I502
I598
tp1027
a(I529
I566
tp1028
as(I731
I491
tp1029
(lp1030
(I709
I491
tp1031
a(I753
I492
tp1032
asg641
(lp1033
(I155
I340
tp1034
ag839
as(I1209
I1890
tp1035
(lp1036
(I1213
I1868
tp1037
a(I1200
I1910
tp1038
as(I1051
I1769
tp1039
(lp1040
(I1049
I1778
tp1041
a(I1052
I1752
tp1042
a(I1056
I1774
tp1043
as(I880
I1906
tp1044
(lp1045
(I900
I1912
tp1046
a(I858
I1900
tp1047
as(I857
I1839
tp1048
(lp1049
(I868
I1839
tp1050
a(I853
I1829
tp1051
as(I741
I1731
tp1052
(lp1053
(I736
I1753
tp1054
a(I744
I1710
tp1055
as(I921
I106
tp1056
(lp1057
(I901
I113
tp1058
a(I943
I110
tp1059
as(I97
I1973
tp1060
(lp1061
(I76
I1981
tp1062
a(I118
I1966
tp1063
as(I708
I1436
tp1064
(lp1065
(I701
I1415
tp1066
a(I712
I1457
tp1067
as(I82
I675
tp1068
(lp1069
(I100
I663
tp1070
a(I66
I690
tp1071
as(I808
I679
tp1072
(lp1073
(I810
I658
tp1074
a(I822
I693
tp1075
as(I63
I1790
tp1076
(lp1077
(I79
I1806
tp1078
a(I48
I1774
tp1079
as(I711
I1319
tp1080
(lp1081
(I704
I1303
tp1082
a(I710
I1337
tp1083
as(I1103
I1212
tp1084
(lp1085
(I1104
I1232
tp1086
a(I1102
I1192
tp1087
asg148
(lp1088
(I1476
I608
tp1089
a(I1432
I608
tp1090
as(I1183
I1268
tp1091
(lp1092
(I1184
I1288
tp1093
a(I1203
I1267
tp1094
a(I1164
I1269
tp1095
as(I216
I512
tp1096
(lp1097
(I216
I532
tp1098
a(I217
I491
tp1099
a(I196
I521
tp1100
as(I1078
I207
tp1101
(lp1102
(I1066
I190
tp1103
a(I1091
I225
tp1104
as(I729
I1370
tp1105
(lp1106
(I741
I1387
tp1107
a(I708
I1374
tp1108
as(I1465
I685
tp1109
(lp1110
(I1470
I705
tp1111
a(I1450
I669
tp1112
as(I1928
I307
tp1113
(lp1114
(I1913
I292
tp1115
ag682
as(I698
I1393
tp1116
(lp1117
(I708
I1374
tp1118
a(I701
I1415
tp1119
asg97
(lp1120
(I1316
I1659
tp1121
a(I1337
I1690
tp1122
as(I546
I721
tp1123
(lp1124
(I567
I726
tp1125
ag204
as(I1027
I1272
tp1126
(lp1127
(I1026
I1253
tp1128
a(I1047
I1272
tp1129
a(I1006
I1273
tp1130
as(I417
I547
tp1131
(lp1132
(I417
I566
tp1133
a(I415
I528
tp1134
as(I90
I379
tp1135
(lp1136
(I72
I392
tp1137
a(I105
I363
tp1138
as(I435
I371
tp1139
(lp1140
(I434
I349
tp1141
a(I453
I381
tp1142
as(I1267
I1245
tp1143
(lp1144
(I1262
I1265
tp1145
a(I1266
I1225
tp1146
as(I1695
I595
tp1147
(lp1148
(I1688
I578
tp1149
a(I1698
I614
tp1150
as(I1217
I432
tp1151
(lp1152
(I1209
I412
tp1153
a(I1236
I442
tp1154
asg1104
(lp1155
(I1078
I207
tp1156
a(I1108
I239
tp1157
as(I1346
I363
tp1158
(lp1159
(I1326
I365
tp1160
a(I1333
I348
tp1161
a(I1363
I357
tp1162
a(I1357
I378
tp1163
asg554
(lp1164
(I1477
I1942
tp1165
a(I1502
I1905
tp1166
as(I1096
I575
tp1167
(lp1168
(I1116
I573
tp1169
a(I1076
I578
tp1170
as(I319
I91
tp1171
(lp1172
(I297
I90
tp1173
ag737
as(I52
I1801
tp1174
(lp1175
(I67
I1817
tp1176
a(I37
I1785
tp1177
as(I785
I217
tp1178
(lp1179
(I765
I214
tp1180
a(I805
I225
tp1181
asg831
(lp1182
(I734
I270
tp1183
a(I698
I291
tp1184
as(I345
I1694
tp1185
(lp1186
(I366
I1698
tp1187
a(I324
I1689
tp1188
as(I441
I278
tp1189
(lp1190
(I437
I298
tp1191
ag119
as(I425
I1612
tp1192
(lp1193
(I446
I1619
tp1194
a(I405
I1605
tp1195
as(I1130
I770
tp1196
(lp1197
(I1151
I769
tp1198
a(I1109
I762
tp1199
asg274
(lp1200
(I1474
I206
tp1201
a(I1452
I171
tp1202
as(I247
I1982
tp1203
(lp1204
(I263
I1997
tp1205
a(I231
I1966
tp1206
as(I637
I370
tp1207
(lp1208
(I617
I370
tp1209
a(I658
I370
tp1210
as(I1614
I901
tp1211
(lp1212
(I1595
I908
tp1213
a(I1634
I895
tp1214
asg1184
(lp1215
(I715
I280
tp1216
a(I691
I310
tp1217
asg846
(lp1218
(I782
I1635
tp1219
ag654
as(I581
I1717
tp1220
(lp1221
(I591
I1698
tp1222
a(I568
I1734
tp1223
as(I1813
I486
tp1224
(lp1225
(I1825
I503
tp1226
a(I1796
I475
tp1227
as(I1272
I45
tp1228
(lp1229
(I1279
I64
tp1230
as(I583
I1352
tp1231
(lp1232
(I592
I1373
tp1233
a(I569
I1335
tp1234
as(I419
I1211
tp1235
(lp1236
(I431
I1228
tp1237
a(I424
I1189
tp1238
as(I552
I1870
tp1239
(lp1240
(I565
I1853
tp1241
a(I535
I1882
tp1242
as(I1843
I124
tp1243
(lp1244
(I1859
I111
tp1245
a(I1832
I142
tp1246
as(I414
I1975
tp1247
(lp1248
(I432
I1981
tp1249
a(I394
I1976
tp1250
asg806
(lp1251
(I344
I398
tp1252
a(I375
I382
tp1253
as(I1213
I1868
tp1254
(lp1255
(I1218
I1847
tp1256
ag1035
asg151
(lp1257
g149
as(I907
I1778
tp1258
(lp1259
(I889
I1788
tp1260
a(I924
I1769
tp1261
as(I67
I251
tp1262
(lp1263
(I87
I246
tp1264
a(I46
I255
tp1265
as(I1597
I593
tp1266
(lp1267
(I1587
I574
tp1268
ag319
as(I664
I1715
tp1269
(lp1270
(I672
I1696
tp1271
a(I654
I1734
tp1272
as(I230
I1408
tp1273
(lp1274
(I243
I1390
tp1275
a(I220
I1427
tp1276
as(I391
I306
tp1277
(lp1278
(I411
I310
tp1279
a(I371
I309
tp1280
as(I235
I2007
tp1281
(lp1282
(I219
I1991
tp1283
a(I248
I2011
tp1284
as(I729
I1774
tp1285
(lp1286
(I722
I1795
tp1287
a(I736
I1753
tp1288
as(I1728
I543
tp1289
(lp1290
(I1737
I559
tp1291
a(I1746
I535
tp1292
a(I1714
I527
tp1293
as(I1748
I594
tp1294
(lp1295
(I1744
I576
tp1296
a(I1749
I612
tp1297
asg513
(lp1298
(I1975
I917
tp1299
a(I1943
I894
tp1300
as(I1127
I249
tp1301
(lp1302
(I1108
I239
tp1303
a(I1148
I256
tp1304
as(I89
I341
tp1305
(lp1306
(I69
I333
tp1307
a(I110
I342
tp1308
as(I368
I1656
tp1309
(lp1310
(I387
I1646
tp1311
a(I346
I1654
tp1312
as(I286
I299
tp1313
(lp1314
(I270
I308
tp1315
a(I301
I290
tp1316
as(I1809
I198
tp1317
(lp1318
(I1807
I217
tp1319
a(I1813
I181
tp1320
asg736
(lp1321
(I1406
I1418
tp1322
as(I1319
I1985
tp1323
(lp1324
(I1338
I1975
tp1325
a(I1317
I1992
tp1326
a(I1301
I1996
tp1327
as(I588
I83
tp1328
(lp1329
(I603
I69
tp1330
a(I573
I97
tp1331
as(I697
I1645
tp1332
(lp1333
(I685
I1655
tp1334
a(I712
I1642
tp1335
as(I520
I499
tp1336
(lp1337
(I498
I497
tp1338
a(I542
I502
tp1339
as(I1271
I1376
tp1340
(lp1341
(I1271
I1393
tp1342
a(I1270
I1359
tp1343
as(I1351
I1436
tp1344
(lp1345
(I1352
I1455
tp1346
a(I1350
I1416
tp1347
as(I158
I1837
tp1348
(lp1349
(I170
I1849
tp1350
a(I147
I1826
tp1351
as(I1292
I365
tp1352
(lp1353
(I1277
I365
tp1354
a(I1307
I365
tp1355
asg541
(lp1356
g539
a(I195
I1853
tp1357
a(I191
I1817
tp1358
as(I1228
I1395
tp1359
(lp1360
(I1207
I1398
tp1361
a(I1250
I1394
tp1362
as(I1024
I1842
tp1363
(lp1364
(I1011
I1854
tp1365
a(I1037
I1830
tp1366
as(I1107
I1516
tp1367
(lp1368
(I1111
I1497
tp1369
a(I1102
I1536
tp1370
as(I454
I1752
tp1371
(lp1372
(I474
I1756
tp1373
a(I434
I1748
tp1374
as(I1358
I1262
tp1375
(lp1376
(I1343
I1262
tp1377
ag32
as(I1787
I456
tp1378
(lp1379
(I1770
I444
tp1380
a(I1796
I475
tp1381
as(I1972
I622
tp1382
(lp1383
(I1951
I616
tp1384
a(I1985
I639
tp1385
as(I194
I391
tp1386
(lp1387
(I176
I385
tp1388
ag977
as(I417
I566
tp1389
(lp1390
(I413
I583
tp1391
ag1131
as(I1766
I395
tp1392
(lp1393
(I1787
I393
tp1394
a(I1745
I397
tp1395
as(I257
I45
tp1396
(lp1397
(I244
I62
tp1398
as(I1055
I1797
tp1399
(lp1400
(I1049
I1789
tp1401
a(I1062
I1804
tp1402
as(I1212
I390
tp1403
(lp1404
(I1213
I368
tp1405
a(I1209
I412
tp1406
as(I1683
I504
tp1407
(lp1408
(I1667
I497
tp1409
a(I1699
I513
tp1410
as(I873
I144
tp1411
(lp1412
(I863
I162
tp1413
a(I887
I129
tp1414
as(I1113
I1851
tp1415
(lp1416
(I1129
I1834
tp1417
a(I1098
I1867
tp1418
as(I252
I1934
tp1419
(lp1420
(I235
I1921
tp1421
a(I231
I1932
tp1422
a(I263
I1935
tp1423
a(I269
I1948
tp1424
as(I518
I156
tp1425
(lp1426
(I503
I169
tp1427
a(I531
I141
tp1428
as(I76
I1981
tp1429
(lp1430
(I54
I1987
tp1431
ag1060
as(I1430
I668
tp1432
(lp1433
(I1450
I669
tp1434
ag438
as(I173
I1931
tp1435
(lp1436
(I188
I1947
tp1437
ag598
as(I1989
I265
tp1438
(lp1439
(I1974
I248
tp1440
a(I2003
I282
tp1441
as(I808
I89
tp1442
(lp1443
(I791
I102
tp1444
a(I819
I71
tp1445
asg377
(lp1446
(I730
I361
tp1447
a(I702
I329
tp1448
as(I347
I264
tp1449
(lp1450
(I347
I242
tp1451
a(I366
I260
tp1452
ag745
as(I1839
I940
tp1453
(lp1454
(I1860
I935
tp1455
ag62
asg310
(lp1456
(I1319
I2000
tp1457
as(I1353
I1474
tp1458
(lp1459
(I1354
I1494
tp1460
a(I1352
I1455
tp1461
as(I870
I774
tp1462
(lp1463
(I863
I787
tp1464
a(I878
I761
tp1465
as(I1962
I1900
tp1466
(lp1467
(I1943
I1893
tp1468
a(I1977
I1914
tp1469
as(I143
I459
tp1470
(lp1471
(I132
I476
tp1472
a(I142
I479
tp1473
asg827
(lp1474
(I433
I1146
tp1475
a(I410
I1109
tp1476
as(I213
I590
tp1477
(lp1478
(I197
I601
tp1479
a(I216
I571
tp1480
asg81
(lp1481
(I1343
I1223
tp1482
a(I1347
I1185
tp1483
asg944
(lp1484
(I425
I1625
tp1485
a(I387
I1646
tp1486
as(I1781
I970
tp1487
(lp1488
(I1800
I960
tp1489
a(I1761
I980
tp1490
as(I110
I1987
tp1491
(lp1492
(I104
I1988
tp1493
a(I116
I1987
tp1494
as(I453
I1820
tp1495
(lp1496
(I474
I1817
tp1497
a(I433
I1819
tp1498
as(I1296
I299
tp1499
(lp1500
(I1284
I283
tp1501
a(I1308
I315
tp1502
as(I69
I453
tp1503
(lp1504
(I67
I476
tp1505
a(I66
I432
tp1506
as(I675
I1024
tp1507
(lp1508
(I694
I1021
tp1509
as(I1377
I141
tp1510
(lp1511
(I1379
I161
tp1512
a(I1374
I120
tp1513
as(I1212
I1519
tp1514
(lp1515
(I1196
I1520
tp1516
a(I1228
I1519
tp1517
as(I1215
I671
tp1518
(lp1519
(I1225
I688
tp1520
as(I425
I330
tp1521
(lp1522
(I434
I349
tp1523
a(I428
I324
tp1524
ag725
a(I446
I334
tp1525
as(I209
I88
tp1526
(lp1527
(I193
I101
tp1528
a(I226
I76
tp1529
a(I231
I89
tp1530
as(I1424
I1952
tp1531
(lp1532
(I1440
I1942
tp1533
a(I1410
I1966
tp1534
a(I1422
I1945
tp1535
asg263
(lp1536
(I1372
I1492
tp1537
ag358
ag1458
as(I111
I730
tp1538
(lp1539
(I122
I749
tp1540
a(I109
I709
tp1541
as(I1951
I616
tp1542
(lp1543
(I1929
I618
tp1544
ag1382
as(I1740
I749
tp1545
(lp1546
(I1729
I761
tp1547
a(I1749
I735
tp1548
as(I1772
I912
tp1549
(lp1550
(I1776
I932
tp1551
a(I1769
I893
tp1552
as(I374
I1977
tp1553
(lp1554
(I394
I1976
tp1555
a(I354
I1977
tp1556
as(I219
I646
tp1557
(lp1558
(I222
I626
tp1559
a(I217
I667
tp1560
as(I1088
I1356
tp1561
(lp1562
(I1109
I1353
tp1563
a(I1066
I1357
tp1564
asg1166
(lp1565
(I1490
I1924
tp1566
a(I1519
I1891
tp1567
as(I178
I113
tp1568
(lp1569
(I193
I101
tp1570
a(I168
I130
tp1571
as(I1825
I412
tp1572
(lp1573
(I1843
I424
tp1574
a(I1807
I400
tp1575
as(I900
I1912
tp1576
(lp1577
(I922
I1916
tp1578
ag1044
as(I373
I1740
tp1579
(lp1580
(I393
I1741
tp1581
a(I352
I1737
tp1582
as(I1466
I479
tp1583
(lp1584
(I1475
I459
tp1585
ag749
as(I185
I651
tp1586
(lp1587
(I203
I659
tp1588
a(I166
I648
tp1589
asg297
(lp1590
(I1639
I702
tp1591
as(I1805
I1806
tp1592
(lp1593
(I1805
I1823
tp1594
a(I1818
I1791
tp1595
as(I1736
I491
tp1596
(lp1597
(I1754
I479
tp1598
a(I1717
I502
tp1599
as(I63
I496
tp1600
(lp1601
(I67
I476
tp1602
a(I58
I515
tp1603
asg22
(lp1604
(I131
I922
tp1605
a(I117
I885
tp1606
as(I162
I1335
tp1607
(lp1608
(I162
I1314
tp1609
a(I181
I1339
tp1610
as(I1362
I1340
tp1611
(lp1612
(I1347
I1340
tp1613
a(I1378
I1340
tp1614
as(I723
I961
tp1615
(lp1616
(I724
I969
tp1617
a(I726
I955
tp1618
asg1108
(lp1619
(I729
I1370
tp1620
a(I708
I1356
tp1621
ag1116
as(I1664
I759
tp1622
(lp1623
(I1681
I771
tp1624
a(I1653
I741
tp1625
as(I544
I1665
tp1626
(lp1627
(I529
I1680
tp1628
a(I559
I1651
tp1629
as(I1228
I1519
tp1630
(lp1631
(I1224
I1502
tp1632
a(I1212
I1519
tp1633
a(I1238
I1517
tp1634
ag547
as(I1179
I1112
tp1635
(lp1636
(I1201
I1110
tp1637
a(I1157
I1115
tp1638
as(I1985
I397
tp1639
(lp1640
(I1977
I376
tp1641
a(I1990
I417
tp1642
as(I351
I1840
tp1643
(lp1644
(I351
I1856
tp1645
as(I1129
I1993
tp1646
(lp1647
(I1144
I1977
tp1648
a(I1114
I2008
tp1649
as(I1851
I1916
tp1650
(lp1651
(I1832
I1910
tp1652
a(I1851
I1938
tp1653
asg400
(lp1654
(I1268
I246
tp1655
a(I1287
I222
tp1656
as(I458
I1661
tp1657
(lp1658
(I440
I1666
tp1659
a(I477
I1656
tp1660
as(I554
I1750
tp1661
(lp1662
(I568
I1734
tp1663
a(I540
I1766
tp1664
as(I349
I731
tp1665
(lp1666
(I341
I712
tp1667
a(I354
I751
tp1668
as(I111
I1765
tp1669
(lp1670
(I112
I1785
tp1671
a(I111
I1745
tp1672
as(I1276
I625
tp1673
(lp1674
(I1288
I625
tp1675
a(I1276
I646
tp1676
a(I1256
I625
tp1677
as(I1066
I1898
tp1678
(lp1679
(I1083
I1883
tp1680
a(I1049
I1912
tp1681
as(I1086
I1271
tp1682
(lp1683
(I1066
I1271
tp1684
a(I1106
I1271
tp1685
asg527
(lp1686
g525
a(I502
I1601
tp1687
as(I1159
I1961
tp1688
(lp1689
(I1173
I1945
tp1690
a(I1144
I1977
tp1691
as(I167
I1293
tp1692
(lp1693
(I157
I1276
tp1694
a(I162
I1314
tp1695
as(I1830
I522
tp1696
(lp1697
(I1833
I543
tp1698
a(I1825
I503
tp1699
asg1381
(lp1700
(I1787
I456
tp1701
a(I1813
I486
tp1702
a(I1775
I472
tp1703
as(I1519
I737
tp1704
(lp1705
(I1516
I716
tp1706
a(I1535
I749
tp1707
as(I839
I868
tp1708
(lp1709
(I818
I864
tp1710
a(I859
I859
tp1711
as(I681
I1931
tp1712
(lp1713
(I697
I1937
tp1714
ag835
as(I1378
I1827
tp1715
(lp1716
(I1393
I1839
tp1717
a(I1371
I1808
tp1718
as(I1169
I260
tp1719
(lp1720
(I1148
I256
tp1721
a(I1191
I260
tp1722
as(I1975
I153
tp1723
(lp1724
(I1992
I165
tp1725
a(I1958
I141
tp1726
as(I1530
I1984
tp1727
(lp1728
(I1546
I1968
tp1729
a(I1514
I1999
tp1730
asg38
(lp1731
(I1390
I1860
tp1732
a(I1424
I1867
tp1733
as(I157
I385
tp1734
(lp1735
(I139
I390
tp1736
a(I176
I385
tp1737
as(I217
I491
tp1738
(lp1739
(I236
I481
tp1740
a(I216
I512
tp1741
as(I379
I1342
tp1742
(lp1743
(I362
I1328
tp1744
a(I395
I1356
tp1745
as(I350
I564
tp1746
(lp1747
(I370
I560
tp1748
a(I328
I563
tp1749
asg677
(lp1750
(I1749
I671
tp1751
ag196
as(I258
I475
tp1752
(lp1753
(I280
I477
tp1754
a(I236
I481
tp1755
as(I919
I65
tp1756
(lp1757
(I921
I76
tp1758
a(I916
I53
tp1759
as(I1161
I346
tp1760
(lp1761
(I1140
I352
tp1762
a(I1182
I341
tp1763
as(I686
I1919
tp1764
(lp1765
(I697
I1937
tp1766
a(I682
I1898
tp1767
as(I1144
I1819
tp1768
(lp1769
(I1159
I1803
tp1770
a(I1129
I1834
tp1771
asg1771
(lp1772
(I1144
I1819
tp1773
ag1415
as(I1790
I540
tp1774
(lp1775
(I1783
I521
tp1776
a(I1794
I561
tp1777
as(I460
I735
tp1778
(lp1779
(I475
I752
tp1780
as(I708
I1356
tp1781
(lp1782
(I710
I1337
tp1783
a(I708
I1374
tp1784
asg1051
(lp1785
(I857
I1839
tp1786
a(I871
I1820
tp1787
a(I839
I1813
tp1788
asg1745
(lp1789
(I379
I1342
tp1790
a(I406
I1373
tp1791
as(I1107
I1150
tp1792
(lp1793
(I1118
I1132
tp1794
a(I1102
I1171
tp1795
as(I1174
I1763
tp1796
(lp1797
(I1170
I1784
tp1798
ag11
as(I208
I1446
tp1799
(lp1800
(I220
I1427
tp1801
a(I196
I1464
tp1802
as(I1470
I705
tp1803
(lp1804
(I1471
I726
tp1805
ag1109
as(I685
I1655
tp1806
(lp1807
(I678
I1675
tp1808
a(I688
I1644
tp1809
ag1332
as(I750
I920
tp1810
(lp1811
(I738
I937
tp1812
ag634
as(I1140
I352
tp1813
(lp1814
(I1119
I358
tp1815
ag1760
asg187
(lp1816
(I1691
I329
tp1817
ag880
as(I754
I1968
tp1818
(lp1819
(I774
I1975
tp1820
a(I734
I1959
tp1821
as(I1201
I1110
tp1822
(lp1823
(I1222
I1108
tp1824
ag1635
as(I1295
I1907
tp1825
(lp1826
(I1305
I1893
tp1827
a(I1279
I1919
tp1828
as(I212
I1039
tp1829
(lp1830
(I207
I1054
tp1831
as(I1348
I1729
tp1832
(lp1833
(I1354
I1749
tp1834
a(I1343
I1710
tp1835
asg649
(lp1836
(I253
I90
tp1837
a(I297
I90
tp1838
asg1490
(lp1839
(I1781
I970
tp1840
a(I1741
I988
tp1841
as(I288
I1948
tp1842
(lp1843
(I273
I1938
tp1844
a(I303
I1959
tp1845
asg689
(lp1846
(I508
I255
tp1847
a(I552
I249
tp1848
as(I1214
I597
tp1849
(lp1850
(I1218
I617
tp1851
as(I60
I1898
tp1852
(lp1853
(I81
I1898
tp1854
a(I40
I1899
tp1855
as(I1024
I1197
tp1856
(lp1857
(I1025
I1215
tp1858
a(I1006
I1197
tp1859
ag395
as(I1132
I1555
tp1860
(lp1861
(I1124
I1567
tp1862
a(I1140
I1544
tp1863
asg1335
(lp1864
(I697
I1645
tp1865
a(I728
I1647
tp1866
as(I841
I702
tp1867
(lp1868
(I822
I693
tp1869
ag761
asg285
(lp1870
(I139
I941
tp1871
ag382
as(I478
I1497
tp1872
(lp1873
(I460
I1507
tp1874
a(I490
I1480
tp1875
as(I39
I957
tp1876
(lp1877
(I57
I950
tp1878
as(I799
I166
tp1879
(lp1880
(I789
I183
tp1881
a(I809
I149
tp1882
as(I714
I1950
tp1883
(lp1884
(I734
I1959
tp1885
a(I697
I1937
tp1886
asg985
(lp1887
(I1181
I109
tp1888
a(I1144
I87
tp1889
as(I1195
I1417
tp1890
(lp1891
(I1179
I1426
tp1892
a(I1207
I1398
tp1893
as(I170
I1849
tp1894
(lp1895
(I178
I1856
tp1896
a(I183
I1847
tp1897
ag1348
as(I522
I751
tp1898
(lp1899
(I539
I762
tp1900
a(I505
I741
tp1901
as(I462
I1711
tp1902
(lp1903
(I480
I1705
tp1904
a(I444
I1717
tp1905
as(I1207
I1714
tp1906
(lp1907
(I1187
I1722
tp1908
a(I1227
I1721
tp1909
as(I1106
I1656
tp1910
(lp1911
(I1106
I1635
tp1912
ag7
ag741
as(I86
I1771
tp1913
(lp1914
(I69
I1757
tp1915
a(I103
I1785
tp1916
asg705
(lp1917
(I1784
I716
tp1918
a(I1818
I739
tp1919
as(I1161
I1190
tp1920
(lp1921
(I1141
I1190
tp1922
ag789
asg1848
(lp1923
(I531
I255
tp1924
a(I552
I228
tp1925
a(I571
I242
tp1926
asg1567
(lp1927
(I1502
I1905
tp1928
a(I1539
I1884
tp1929
as(I107
I1020
tp1930
(lp1931
(I125
I1013
tp1932
a(I88
I1027
tp1933
as(I384
I460
tp1934
(lp1935
(I386
I441
tp1936
a(I381
I481
tp1937
asg798
(lp1938
(I218
I1893
tp1939
a(I194
I1870
tp1940
as(I317
I654
tp1941
(lp1942
(I324
I634
tp1943
a(I320
I675
tp1944
as(I1113
I1429
tp1945
(lp1946
(I1114
I1445
tp1947
a(I1112
I1410
tp1948
a(I1135
I1428
tp1949
a(I1092
I1430
tp1950
as(I1323
I1639
tp1951
(lp1952
(I1318
I1621
tp1953
a(I1327
I1656
tp1954
as(I1749
I186
tp1955
(lp1956
(I1770
I186
tp1957
a(I1733
I172
tp1958
as(I1916
I733
tp1959
(lp1960
(I1920
I751
tp1961
a(I1905
I718
tp1962
asg728
(lp1963
(I417
I343
tp1964
a(I401
I370
tp1965
as(I263
I1997
tp1966
(lp1967
(I295
I1996
tp1968
a(I251
I1979
tp1969
ag1203
as(I937
I689
tp1970
(lp1971
(I917
I683
tp1972
a(I955
I697
tp1973
as(I1392
I614
tp1974
(lp1975
(I1410
I608
tp1976
a(I1374
I620
tp1977
as(I1319
I1262
tp1978
(lp1979
(I1331
I1262
tp1980
as(I603
I1460
tp1981
(lp1982
(I605
I1483
tp1983
a(I601
I1438
tp1984
as(I1302
I408
tp1985
(lp1986
(I1282
I416
tp1987
a(I1307
I387
tp1988
as(I1547
I360
tp1989
(lp1990
(I1551
I342
tp1991
a(I1541
I378
tp1992
asg534
(lp1993
(I213
I700
tp1994
a(I229
I739
tp1995
as(I1822
I845
tp1996
(lp1997
(I1843
I841
tp1998
a(I1802
I836
tp1999
as(I778
I200
tp2000
(lp2001
(I765
I214
tp2002
a(I789
I183
tp2003
as(I1265
I1184
tp2004
(lp2005
(I1265
I1204
tp2006
a(I1264
I1172
tp2007
a(I1282
I1180
tp2008
as(I474
I387
tp2009
(lp2010
(I453
I381
tp2011
a(I495
I388
tp2012
asg1366
(lp2013
(I1024
I1842
tp2014
a(I1050
I1817
tp2015
as(I1920
I426
tp2016
(lp2017
(I1911
I408
tp2018
a(I1924
I446
tp2019
as(I1392
I467
tp2020
(lp2021
(I1387
I448
tp2022
a(I1401
I484
tp2023
asg1498
(lp2024
(I453
I1820
tp2025
a(I413
I1813
tp2026
as(I470
I191
tp2027
(lp2028
(I453
I202
tp2029
a(I487
I181
tp2030
asg270
(lp2031
(I150
I1035
tp2032
a(I153
I1073
tp2033
as(I132
I476
tp2034
(lp2035
(I113
I486
tp2036
ag1470
asg962
(lp2037
g960
ag1317
asg1272
(lp2038
(I664
I1715
tp2039
a(I641
I1751
tp2040
as(I110
I1722
tp2041
(lp2042
(I110
I1720
tp2043
ag888
asg101
(lp2044
(I351
I313
tp2045
ag564
asg372
(lp2046
(I64
I1368
tp2047
asg989
(lp2048
(I949
I1933
tp2049
a(I978
I1958
tp2050
as(I430
I317
tp2051
(lp2052
(I428
I324
tp2053
a(I411
I310
tp2054
a(I437
I298
tp2055
as(I1479
I265
tp2056
(lp2057
(I1486
I244
tp2058
a(I1473
I286
tp2059
as(I123
I1431
tp2060
(lp2061
(I126
I1410
tp2062
a(I123
I1452
tp2063
asg748
(lp2064
(I331
I272
tp2065
a(I301
I290
tp2066
as(I1470
I1698
tp2067
(lp2068
(I1461
I1679
tp2069
a(I1479
I1718
tp2070
asg1866
(lp2071
(I712
I1642
tp2072
a(I738
I1666
tp2073
a(I711
I1637
tp2074
asg1905
(lp2075
(I462
I1711
tp2076
a(I427
I1726
tp2077
as(I158
I668
tp2078
(lp2079
(I142
I683
tp2080
a(I166
I648
tp2081
as(I1615
I125
tp2082
(lp2083
(I1629
I139
tp2084
a(I1595
I127
tp2085
asg1625
(lp2086
(I1664
I759
tp2087
a(I1648
I721
tp2088
as(I1447
I106
tp2089
(lp2090
(I1451
I127
tp2091
a(I1443
I85
tp2092
as(I1787
I393
tp2093
(lp2094
(I1807
I400
tp2095
ag1392
as(I96
I829
tp2096
(lp2097
(I88
I809
tp2098
a(I103
I849
tp2099
as(I1229
I1602
tp2100
(lp2101
(I1228
I1581
tp2102
as(I1083
I1883
tp2103
(lp2104
(I1098
I1867
tp2105
ag1678
as(I1707
I446
tp2106
(lp2107
(I1686
I444
tp2108
a(I1728
I442
tp2109
as(I272
I1891
tp2110
(lp2111
(I273
I1905
tp2112
a(I292
I1891
tp2113
a(I254
I1892
tp2114
a(I272
I1870
tp2115
as(I1461
I1878
tp2116
(lp2117
(I1445
I1867
tp2118
a(I1469
I1897
tp2119
as(I1218
I1847
tp2120
(lp2121
(I1223
I1825
tp2122
ag1254
as(I393
I1808
tp2123
(lp2124
(I413
I1813
tp2125
ag47
as(I101
I303
tp2126
(lp2127
(I111
I317
tp2128
a(I85
I295
tp2129
as(I82
I1833
tp2130
(lp2131
(I97
I1849
tp2132
a(I67
I1817
tp2133
as(I366
I1698
tp2134
(lp2135
(I386
I1696
tp2136
ag1185
as(I1452
I149
tp2137
(lp2138
(I1452
I171
tp2139
a(I1451
I127
tp2140
as(I2008
I179
tp2141
(lp2142
(I1992
I165
tp2143
as(I741
I170
tp2144
(lp2145
(I723
I181
tp2146
a(I752
I151
tp2147
as(I1494
I429
tp2148
(lp2149
(I1475
I438
tp2150
ag275
as(I1558
I305
tp2151
(lp2152
(I1555
I324
tp2153
a(I1557
I287
tp2154
asg2063
(lp2155
(I123
I1431
tp2156
a(I123
I1473
tp2157
as(I128
I1798
tp2158
(lp2159
(I112
I1806
tp2160
a(I147
I1796
tp2161
asg250
(lp2162
(I1901
I111
tp2163
a(I1859
I111
tp2164
as(I1527
I175
tp2165
(lp2166
(I1511
I188
tp2167
a(I1544
I162
tp2168
as(I432
I493
tp2169
(lp2170
(I410
I492
tp2171
a(I454
I493
tp2172
as(I87
I1575
tp2173
(lp2174
(I96
I1593
tp2175
a(I78
I1563
tp2176
a(I104
I1579
tp2177
as(I431
I1228
tp2178
(lp2179
(I451
I1237
tp2180
ag1235
as(I1303
I165
tp2181
(lp2182
(I1303
I185
tp2183
a(I1301
I144
tp2184
asg1649
(lp2185
(I1129
I1993
tp2186
as(I1595
I908
tp2187
(lp2188
(I1575
I911
tp2189
ag1211
as(I125
I695
tp2190
(lp2191
(I109
I709
tp2192
a(I142
I683
tp2193
as(I111
I1960
tp2194
(lp2195
(I92
I1968
tp2196
ag912
as(I180
I470
tp2197
(lp2198
(I178
I489
tp2199
as(I366
I836
tp2200
(lp2201
(I363
I815
tp2202
a(I369
I857
tp2203
as(I43
I1353
tp2204
(lp2205
(I64
I1349
tp2206
a(I52
I1298
tp2207
asg61
(lp2208
g59
a(I424
I1451
tp2209
asg1520
(lp2210
g1518
a(I1245
I692
tp2211
as(I1371
I100
tp2212
(lp2213
(I1374
I120
tp2214
as(I218
I176
tp2215
(lp2216
(I240
I175
tp2217
a(I196
I176
tp2218
as(I1928
I859
tp2219
(lp2220
(I1911
I857
tp2221
a(I1943
I851
tp2222
asg1129
(lp2223
(I1027
I1272
tp2224
a(I1066
I1271
tp2225
as(I1575
I911
tp2226
(lp2227
(I1559
I899
tp2228
ag2187
as(I125
I1854
tp2229
(lp2230
(I140
I1870
tp2231
a(I109
I1838
tp2232
as(I307
I890
tp2233
(lp2234
(I327
I885
tp2235
a(I288
I899
tp2236
as(I1966
I358
tp2237
(lp2238
(I1954
I340
tp2239
a(I1977
I376
tp2240
asg1003
(lp2241
g1001
as(I1189
I1346
tp2242
(lp2243
(I1186
I1346
tp2244
a(I1192
I1346
tp2245
asg1571
(lp2246
(I178
I113
tp2247
a(I167
I150
tp2248
asg709
(lp2249
(I1434
I1851
tp2250
a(I1475
I1850
tp2251
as(I159
I1519
tp2252
(lp2253
(I172
I1501
tp2254
a(I142
I1532
tp2255
as(I184
I1635
tp2256
(lp2257
(I176
I1649
tp2258
a(I163
I1639
tp2259
asg2055
(lp2260
(I430
I317
tp2261
ag1189
as(I310
I552
tp2262
(lp2263
(I328
I563
tp2264
a(I292
I540
tp2265
as(I1844
I242
tp2266
(lp2267
(I1823
I236
tp2268
a(I1862
I252
tp2269
as(I136
I336
tp2270
(lp2271
(I116
I334
tp2272
ag638
as(I1649
I177
tp2273
(lp2274
(I1658
I195
tp2275
a(I1639
I158
tp2276
as(I1661
I553
tp2277
(lp2278
(I1643
I556
tp2279
a(I1676
I564
tp2280
asg301
(lp2281
(I1593
I493
tp2282
a(I1552
I505
tp2283
as(I858
I805
tp2284
(lp2285
(I871
I817
tp2286
a(I863
I787
tp2287
as(I1770
I444
tp2288
(lp2289
(I1749
I440
tp2290
ag1378
asg1042
(lp2291
(I1051
I1769
tp2292
a(I1065
I1745
tp2293
asg716
(lp2294
(I1787
I1910
tp2295
a(I1832
I1910
tp2296
as(I1572
I1897
tp2297
(lp2298
(I1561
I1882
tp2299
a(I1556
I1912
tp2300
asg1320
(lp2301
(I1809
I198
tp2302
a(I1791
I184
tp2303
a(I1818
I171
tp2304
as(I1048
I1479
tp2305
(lp2306
(I1070
I1478
tp2307
a(I1034
I1469
tp2308
as(I1376
I281
tp2309
(lp2310
(I1389
I298
tp2311
a(I1367
I263
tp2312
as(I70
I1798
tp2313
(lp2314
(I48
I1801
tp2315
a(I91
I1799
tp2316
as(I1875
I356
tp2317
(lp2318
(I1860
I341
tp2319
a(I1888
I373
tp2320
as(I81
I789
tp2321
(lp2322
(I73
I769
tp2323
a(I88
I809
tp2324
as(I1551
I582
tp2325
(lp2326
(I1534
I592
tp2327
a(I1568
I574
tp2328
as(I247
I1952
tp2329
(lp2330
(I225
I1946
tp2331
a(I266
I1963
tp2332
as(I1026
I1253
tp2333
(lp2334
(I1026
I1234
tp2335
ag1126
as(I220
I933
tp2336
(lp2337
(I213
I915
tp2338
a(I227
I952
tp2339
asg2300
(lp2340
(I1572
I1897
tp2341
a(I1540
I1927
tp2342
as(I247
I412
tp2343
(lp2344
(I247
I395
tp2345
a(I252
I428
tp2346
as(I1228
I1804
tp2347
(lp2348
(I1233
I1783
tp2349
a(I1223
I1825
tp2350
as(I476
I495
tp2351
(lp2352
(I454
I493
tp2353
a(I498
I497
tp2354
as(I71
I1989
tp2355
(lp2356
(I88
I1989
tp2357
a(I54
I1987
tp2358
as(I2009
I1012
tp2359
(lp2360
(I1988
I1013
tp2361
as(I981
I163
tp2362
(lp2363
(I968
I145
tp2364
a(I995
I180
tp2365
as(I1279
I64
tp2366
(lp2367
(I1287
I83
tp2368
ag1228
as(I1980
I1670
tp2369
(lp2370
(I1959
I1665
tp2371
a(I1999
I1680
tp2372
as(I1923
I206
tp2373
(lp2374
(I1904
I194
tp2375
a(I1941
I219
tp2376
as(I414
I106
tp2377
(lp2378
(I415
I127
tp2379
a(I414
I86
tp2380
as(I1118
I1132
tp2381
(lp2382
(I1137
I1121
tp2383
ag1792
as(I272
I913
tp2384
(lp2385
(I288
I899
tp2386
a(I260
I929
tp2387
as(I1341
I434
tp2388
(lp2389
(I1354
I450
tp2390
a(I1320
I434
tp2391
as(I1102
I1616
tp2392
(lp2393
(I1106
I1635
tp2394
a(I1098
I1595
tp2395
as(I1699
I1910
tp2396
(lp2397
(I1681
I1898
tp2398
a(I1721
I1912
tp2399
as(I225
I1946
tp2400
(lp2401
(I203
I1945
tp2402
ag2329
asg582
(lp2403
g580
a(I1970
I822
tp2404
as(I581
I493
tp2405
(lp2406
(I563
I504
tp2407
a(I603
I491
tp2408
asg693
(lp2409
(I271
I1719
tp2410
a(I250
I1682
tp2411
as(I440
I1666
tp2412
(lp2413
(I422
I1673
tp2414
ag1657
as(I306
I174
tp2415
(lp2416
(I284
I174
tp2417
as(I1051
I1429
tp2418
(lp2419
(I1071
I1431
tp2420
a(I1038
I1414
tp2421
as(I94
I1044
tp2422
(lp2423
(I100
I1061
tp2424
a(I88
I1027
tp2425
as(I1526
I815
tp2426
(lp2427
(I1546
I821
tp2428
a(I1504
I816
tp2429
as(I707
I1545
tp2430
(lp2431
(I710
I1523
tp2432
a(I704
I1567
tp2433
asg1505
(lp2434
g1503
ag1600
a(I80
I463
tp2435
as(I1366
I1788
tp2436
(lp2437
(I1371
I1808
tp2438
a(I1360
I1769
tp2439
asg246
(lp2440
(I957
I126
tp2441
ag2362
as(I608
I1527
tp2442
(lp2443
(I609
I1548
tp2444
ag188
asg118
(lp2445
(I401
I454
tp2446
a(I410
I492
tp2447
asg1423
(lp2448
(I252
I1934
tp2449
a(I273
I1938
tp2450
as(I233
I885
tp2451
(lp2452
(I247
I880
tp2453
a(I219
I890
tp2454
as(I73
I988
tp2455
(lp2456
(I65
I969
tp2457
a(I80
I1007
tp2458
asg777
(lp2459
(I1312
I585
tp2460
a(I1337
I550
tp2461
as(I1856
I2001
tp2462
(lp2463
(I1856
I1980
tp2464
asg171
(lp2465
(I96
I1297
tp2466
a(I136
I1280
tp2467
as(I1163
I634
tp2468
(lp2469
(I1158
I613
tp2470
a(I1167
I654
tp2471
as(I170
I1902
tp2472
(lp2473
(I185
I1918
tp2474
a(I155
I1886
tp2475
as(I331
I1300
tp2476
(lp2477
(I321
I1281
tp2478
a(I346
I1315
tp2479
asg720
(lp2480
(I869
I99
tp2481
a(I906
I82
tp2482
as(I1546
I1968
tp2483
(lp2484
(I1564
I1956
tp2485
ag1727
asg1925
(lp2486
(I552
I249
tp2487
a(I551
I207
tp2488
as(I1659
I1792
tp2489
(lp2490
(I1646
I1776
tp2491
a(I1666
I1812
tp2492
as(I53
I1743
tp2493
(lp2494
(I36
I1728
tp2495
a(I69
I1757
tp2496
asg368
(lp2497
(I321
I1621
tp2498
a(I307
I1581
tp2499
asg1699
(lp2500
(I1830
I522
tp2501
ag1224
as(I205
I1070
tp2502
(lp2503
(I207
I1054
tp2504
a(I204
I1086
tp2505
asg864
(lp2506
(I1279
I743
tp2507
a(I1237
I749
tp2508
a(I1259
I770
tp2509
asg932
(lp2510
(I938
I1811
tp2511
a(I968
I1795
tp2512
asg1004
(lp2513
(I1848
I1978
tp2514
a(I1856
I1980
tp2515
a(I1851
I1938
tp2516
asg179
(lp2517
(I339
I620
tp2518
ag1941
as(I1507
I839
tp2519
(lp2520
(I1526
I830
tp2521
a(I1490
I853
tp2522
asg2283
(lp2523
(I1573
I499
tp2524
a(I1532
I512
tp2525
as(I1991
I439
tp2526
(lp2527
(I1990
I417
tp2528
ag236
as(I729
I573
tp2529
(lp2530
(I711
I586
tp2531
a(I747
I561
tp2532
asg1528
(lp2533
g1526
ag1568
as(I366
I260
tp2534
(lp2535
(I385
I260
tp2536
a(I347
I264
tp2537
as(I868
I1839
tp2538
(lp2539
(I877
I1858
tp2540
ag1048
a(I889
I1834
tp2541
as(I244
I62
tp2542
(lp2543
(I226
I76
tp2544
ag1396
as(I1350
I1397
tp2545
(lp2546
(I1350
I1416
tp2547
a(I1349
I1378
tp2548
asg2482
(lp2549
(I887
I90
tp2550
a(I913
I78
tp2551
a(I911
I66
tp2552
as(I106
I622
tp2553
(lp2554
(I112
I638
tp2555
a(I99
I606
tp2556
asg2391
(lp2557
(I1341
I434
tp2558
a(I1298
I439
tp2559
as(I252
I800
tp2560
(lp2561
(I244
I779
tp2562
a(I259
I819
tp2563
as(I516
I1890
tp2564
(lp2565
(I535
I1882
tp2566
a(I495
I1892
tp2567
as(I1587
I574
tp2568
(lp2569
(I1568
I574
tp2570
a(I1585
I555
tp2571
ag1266
as(I1379
I161
tp2572
(lp2573
(I1378
I182
tp2574
ag1510
asg653
(lp2575
(I511
I331
tp2576
ag251
as(I1378
I981
tp2577
(lp2578
(I1386
I960
tp2579
a(I1370
I1000
tp2580
as(I1856
I557
tp2581
(lp2582
(I1851
I577
tp2583
a(I1865
I537
tp2584
asg1859
(lp2585
(I1024
I1197
tp2586
a(I987
I1197
tp2587
asg2280
(lp2588
(I1661
I553
tp2589
a(I1688
I578
tp2590
asg2395
(lp2591
(I1102
I1616
tp2592
a(I1095
I1575
tp2593
a(I1110
I1589
tp2594
asg304
(lp2595
g302
ag2242
ag51
as(I1795
I602
tp2596
(lp2597
(I1795
I581
tp2598
a(I1795
I622
tp2599
asg2346
(lp2600
(I247
I412
tp2601
a(I252
I446
tp2602
as(I164
I798
tp2603
(lp2604
(I179
I813
tp2605
a(I149
I782
tp2606
asg2358
(lp2607
(I71
I1989
tp2608
a(I73
I1978
tp2609
ag1429
ag165
as(I1174
I1812
tp2610
(lp2611
(I1167
I1808
tp2612
as(I539
I762
tp2613
(lp2614
(I558
I764
tp2615
ag1898
as(I1071
I1720
tp2616
(lp2617
(I1056
I1719
tp2618
as(I47
I596
tp2619
(lp2620
(I49
I576
tp2621
a(I44
I617
tp2622
asg586
(lp2623
(I1519
I604
tp2624
ag145
asg1177
(lp2625
(I52
I1801
tp2626
a(I43
I1818
tp2627
asg132
(lp2628
(I302
I1560
tp2629
a(I303
I1516
tp2630
as(I1270
I231
tp2631
(lp2632
(I1287
I222
tp2633
a(I1254
I243
tp2634
asg617
(lp2635
(I165
I1793
tp2636
a(I147
I1826
tp2637
as(I728
I1005
tp2638
(lp2639
(I729
I987
tp2640
a(I712
I1015
tp2641
as(I1185
I1307
tp2642
(lp2643
(I1188
I1326
tp2644
a(I1184
I1288
tp2645
as(I1578
I425
tp2646
(lp2647
(I1560
I437
tp2648
a(I1595
I411
tp2649
asg492
(lp2650
(I712
I1501
tp2651
ag2430
as(I1666
I1812
tp2652
(lp2653
(I1676
I1798
tp2654
a(I1659
I1792
tp2655
ag501
as(I67
I862
tp2656
(lp2657
(I48
I869
tp2658
a(I85
I856
tp2659
asg624
(lp2660
g622
a(I250
I1065
tp2661
a(I265
I1072
tp2662
as(I172
I1765
tp2663
(lp2664
(I158
I1752
tp2665
a(I185
I1778
tp2666
as(I217
I667
tp2667
(lp2668
(I210
I663
tp2669
a(I219
I646
tp2670
a(I235
I679
tp2671
as(I1870
I847
tp2672
(lp2673
(I1885
I832
tp2674
a(I1855
I864
tp2675
as(I402
I895
tp2676
(lp2677
(I384
I887
tp2678
ag4
as(I852
I109
tp2679
(lp2680
(I834
I118
tp2681
ag717
asg1506
(lp2682
(I69
I453
tp2683
a(I62
I411
tp2684
as(I1921
I120
tp2685
(lp2686
(I1939
I130
tp2687
ag247
as(I506
I782
tp2688
(lp2689
(I490
I767
tp2690
a(I525
I791
tp2691
as(I1874
I517
tp2692
(lp2693
(I1865
I537
tp2694
a(I1879
I497
tp2695
as(I1951
I667
tp2696
(lp2697
(I1951
I686
tp2698
a(I1952
I648
tp2699
asg1695
(lp2700
(I167
I1293
tp2701
ag1607
as(I1062
I1804
tp2702
(lp2703
(I1050
I1817
tp2704
a(I1074
I1792
tp2705
a(I1055
I1797
tp2706
as(I1430
I511
tp2707
(lp2708
(I1414
I500
tp2709
a(I1448
I519
tp2710
as(I608
I1570
tp2711
(lp2712
(I609
I1548
tp2713
a(I606
I1592
tp2714
as(I1158
I613
tp2715
(lp2716
(I1155
I592
tp2717
ag2468
asg1418
(lp2718
(I1113
I1851
tp2719
ag2103
asg1893
(lp2720
(I1195
I1417
tp2721
ag1359
as(I352
I1910
tp2722
(lp2723
(I353
I1933
tp2724
a(I352
I1888
tp2725
as(I1990
I1931
tp2726
(lp2727
(I1977
I1914
tp2728
ag462
asg1445
(lp2729
(I808
I89
tp2730
a(I821
I49
tp2731
as(I1256
I625
tp2732
(lp2733
(I1235
I625
tp2734
a(I1276
I625
tp2735
as(I1278
I1502
tp2736
(lp2737
(I1262
I1488
tp2738
a(I1289
I1520
tp2739
asg326
(lp2740
(I453
I1619
tp2741
ag1192
ag941
as(I1389
I298
tp2742
(lp2743
(I1401
I315
tp2744
ag2309
asg1374
(lp2745
(I454
I1752
tp2746
a(I414
I1745
tp2747
asg1634
(lp2748
(I1228
I1519
tp2749
a(I1245
I1509
tp2750
as(I1271
I1393
tp2751
(lp2752
(I1250
I1394
tp2753
ag1340
a(I1273
I1412
tp2754
as(I134
I650
tp2755
(lp2756
(I119
I655
tp2757
a(I150
I648
tp2758
as(I341
I712
tp2759
(lp2760
(I330
I693
tp2761
ag1665
asg1530
(lp2762
(I209
I88
tp2763
ag646
as(I342
I1001
tp2764
(lp2765
(I346
I1023
tp2766
a(I337
I979
tp2767
as(I1819
I1771
tp2768
(lp2769
(I1818
I1791
tp2770
as(I351
I1044
tp2771
(lp2772
(I361
I1064
tp2773
a(I346
I1023
tp2774
asg1095
(lp2775
(I1183
I1268
tp2776
a(I1145
I1269
tp2777
as(I395
I369
tp2778
(lp2779
(I401
I370
tp2780
a(I388
I367
tp2781
as(I252
I990
tp2782
(lp2783
(I255
I1011
tp2784
a(I249
I969
tp2785
as(I1857
I748
tp2786
(lp2787
(I1836
I750
tp2788
a(I1878
I748
tp2789
as(I1126
I74
tp2790
(lp2791
(I1144
I87
tp2792
a(I1108
I61
tp2793
as(I67
I1813
tp2794
(lp2795
(I89
I1814
tp2796
a(I46
I1816
tp2797
as(I179
I813
tp2798
(lp2799
(I186
I834
tp2800
ag2603
as(I180
I165
tp2801
(lp2802
(I167
I150
tp2803
a(I196
I176
tp2804
asg420
(lp2805
(I271
I1148
tp2806
a(I315
I1147
tp2807
as(I460
I1507
tp2808
(lp2809
(I445
I1520
tp2810
ag1872
as(I1364
I493
tp2811
(lp2812
(I1361
I513
tp2813
a(I1359
I471
tp2814
asg389
(lp2815
(I190
I1933
tp2816
ag422
as(I413
I510
tp2817
(lp2818
(I415
I528
tp2819
a(I410
I492
tp2820
as(I1601
I270
tp2821
(lp2822
(I1595
I289
tp2823
a(I1606
I249
tp2824
asg113
(lp2825
(I123
I1495
tp2826
a(I142
I1532
tp2827
as(I815
I1897
tp2828
(lp2829
(I837
I1899
tp2830
a(I793
I1895
tp2831
as(I806
I773
tp2832
(lp2833
(I813
I793
tp2834
a(I817
I755
tp2835
as(I1475
I438
tp2836
(lp2837
(I1467
I422
tp2838
a(I1475
I459
tp2839
a(I1497
I439
tp2840
ag2148
as(I1016
I1435
tp2841
(lp2842
(I1032
I1448
tp2843
a(I994
I1436
tp2844
asg538
(lp2845
(I622
I114
tp2846
ag876
as(I286
I392
tp2847
(lp2848
(I266
I392
tp2849
a(I305
I393
tp2850
as(I268
I1784
tp2851
(lp2852
(I270
I1805
tp2853
a(I250
I1773
tp2854
asg1722
(lp2855
(I1169
I260
tp2856
ag993
as(I718
I64
tp2857
(lp2858
(I718
I43
tp2859
a(I716
I85
tp2860
as(I593
I1549
tp2861
(lp2862
(I609
I1548
tp2863
a(I577
I1550
tp2864
asg1687
(lp2865
(I502
I1586
tp2866
a(I495
I1614
tp2867
as(I586
I734
tp2868
(lp2869
(I592
I754
tp2870
a(I567
I726
tp2871
as(I660
I185
tp2872
(lp2873
(I639
I185
tp2874
a(I682
I184
tp2875
as(I353
I1933
tp2876
(lp2877
(I354
I1955
tp2878
ag2722
as(I1397
I1942
tp2879
(lp2880
(I1417
I1939
tp2881
a(I1377
I1953
tp2882
as(I1021
I215
tp2883
(lp2884
(I1009
I197
tp2885
a(I1033
I234
tp2886
as(I1545
I273
tp2887
(lp2888
(I1557
I287
tp2889
a(I1526
I268
tp2890
asg1032
(lp2891
(I731
I491
tp2892
a(I774
I498
tp2893
asg2059
(lp2894
(I1479
I265
tp2895
a(I1468
I308
tp2896
asg609
(lp2897
(I1120
I1541
tp2898
a(I1117
I1578
tp2899
as(I1609
I327
tp2900
(lp2901
(I1629
I331
tp2902
a(I1595
I310
tp2903
as(I377
I1469
tp2904
(lp2905
(I377
I1490
tp2906
a(I380
I1448
tp2907
as(I156
I287
tp2908
(lp2909
(I134
I287
tp2910
ag208
as(I567
I602
tp2911
(lp2912
(I556
I585
tp2913
a(I589
I603
tp2914
as(I1026
I1234
tp2915
(lp2916
(I1025
I1215
tp2917
ag2333
asg625
(lp2918
(I259
I1033
tp2919
ag2782
as(I1006
I1927
tp2920
(lp2921
(I1012
I1912
tp2922
a(I998
I1926
tp2923
a(I1010
I1933
tp2924
asg575
(lp2925
(I404
I259
tp2926
ag2534
as(I810
I658
tp2927
(lp2928
(I815
I637
tp2929
ag1072
as(I815
I637
tp2930
(lp2931
(I825
I618
tp2932
ag2927
as(I1111
I1391
tp2933
(lp2934
(I1112
I1410
tp2935
a(I1110
I1372
tp2936
asg2499
(lp2937
(I314
I1601
tp2938
ag129
as(I1258
I1950
tp2939
(lp2940
(I1262
I1931
tp2941
a(I1267
I1969
tp2942
as(I1686
I444
tp2943
(lp2944
(I1666
I435
tp2945
ag2106
as(I1389
I1492
tp2946
(lp2947
(I1406
I1490
tp2948
ag260
as(I474
I1817
tp2949
(lp2950
(I493
I1809
tp2951
ag1495
as(I318
I800
tp2952
(lp2953
(I313
I779
tp2954
a(I320
I822
tp2955
as(I998
I1926
tp2956
(lp2957
(I992
I1921
tp2958
a(I1006
I1927
tp2959
as(I48
I329
tp2960
(lp2961
(I46
I255
tp2962
a(I69
I333
tp2963
asg2914
(lp2964
(I567
I602
tp2965
a(I610
I602
tp2966
asg1406
(lp2967
(I1212
I390
tp2968
ag1151
as(I423
I625
tp2969
(lp2970
(I422
I603
tp2971
a(I423
I646
tp2972
asg1465
(lp2973
(I870
I774
tp2974
asg911
(lp2975
(I1461
I1982
tp2976
a(I1445
I2009
tp2977
asg1886
(lp2978
(I714
I1950
tp2979
ag1712
ag1764
asg1851
(lp2980
g1849
a(I1235
I625
tp2981
as(I741
I1387
tp2982
(lp2983
(I747
I1408
tp2984
ag1105
as(I1236
I1762
tp2985
(lp2986
(I1237
I1739
tp2987
a(I1233
I1783
tp2988
asg2781
(lp2989
(I395
I369
tp2990
a(I366
I363
tp2991
a(I375
I382
tp2992
as(I936
I753
tp2993
(lp2994
(I944
I769
tp2995
ag916
as(I187
I1961
tp2996
(lp2997
(I169
I1949
tp2998
a(I204
I1976
tp2999
as(I377
I1079
tp3000
(lp3001
(I394
I1093
tp3002
a(I361
I1064
tp3003
asg2312
(lp3004
(I1376
I281
tp3005
a(I1366
I242
tp3006
asg2532
(lp3007
(I729
I573
tp3008
a(I766
I552
tp3009
as(I833
I740
tp3010
(lp3011
(I817
I755
tp3012
a(I844
I722
tp3013
a(I834
I761
tp3014
as(I1307
I1581
tp3015
(lp3016
(I1301
I1560
tp3017
a(I1313
I1601
tp3018
as(I445
I1520
tp3019
(lp3020
(I449
I1539
tp3021
ag2808
asg842
(lp3022
(I196
I342
tp3023
a(I226
I325
tp3024
a(I238
I344
tp3025
as(I548
I565
tp3026
(lp3027
(I529
I566
tp3028
a(I556
I585
tp3029
as(I184
I1483
tp3030
(lp3031
(I196
I1464
tp3032
a(I172
I1501
tp3033
as(I401
I187
tp3034
(lp3035
(I385
I188
tp3036
ag390
as(I347
I220
tp3037
(lp3038
(I347
I198
tp3039
a(I347
I242
tp3040
as(I376
I1512
tp3041
(lp3042
(I376
I1534
tp3043
a(I377
I1490
tp3044
asg1977
(lp3045
(I1392
I614
tp3046
a(I1356
I625
tp3047
as(I134
I767
tp3048
(lp3049
(I149
I782
tp3050
a(I122
I749
tp3051
as(I215
I278
tp3052
(lp3053
(I235
I272
tp3054
a(I199
I289
tp3055
asg2838
(lp3056
g2836
a(I1452
I411
tp3057
asg1358
(lp3058
(I192
I1837
tp3059
a(I191
I1797
tp3060
as(I1299
I737
tp3061
(lp3062
(I1320
I731
tp3063
ag861
asg2019
(lp3064
(I1920
I426
tp3065
a(I1926
I467
tp3066
asg1292
(lp3067
(I1728
I543
tp3068
a(I1764
I525
tp3069
as(I1009
I197
tp3070
(lp3071
(I995
I180
tp3072
ag2883
as(I1030
I1394
tp3073
(lp3074
(I1038
I1414
tp3075
asg1199
(lp3076
(I1130
I770
tp3077
a(I1097
I744
tp3078
as(I1170
I1784
tp3079
(lp3080
(I1159
I1803
tp3081
ag1796
as(I302
I350
tp3082
(lp3083
(I281
I347
tp3084
a(I324
I355
tp3085
as(I1889
I1864
tp3086
(lp3087
(I1910
I1866
tp3088
a(I1869
I1863
tp3089
asg2464
(lp3090
g2462
a(I1852
I1960
tp3091
asg2559
(lp3092
(I1320
I434
tp3093
a(I1279
I449
tp3094
as(I358
I612
tp3095
(lp3096
(I379
I606
tp3097
ag176
asg900
(lp3098
(I1452
I1659
tp3099
ag2067
asg2109
(lp3100
(I1707
I446
tp3101
a(I1749
I440
tp3102
as(I1710
I254
tp3103
(lp3104
(I1731
I252
tp3105
a(I1689
I259
tp3106
as(I1897
I277
tp3107
(lp3108
(I1880
I264
tp3109
a(I1913
I292
tp3110
as(I563
I504
tp3111
(lp3112
(I542
I502
tp3113
ag2405
asg2580
(lp3114
(I1378
I981
tp3115
a(I1362
I1021
tp3116
as(I66
I749
tp3117
(lp3118
(I58
I729
tp3119
a(I73
I769
tp3120
as(I1430
I331
tp3121
(lp3122
(I1413
I331
tp3123
a(I1448
I330
tp3124
as(I189
I1882
tp3125
(lp3126
(I186
I1863
tp3127
a(I177
I1895
tp3128
as(I259
I346
tp3129
(lp3130
(I238
I344
tp3131
a(I281
I347
tp3132
as(I157
I1276
tp3133
(lp3134
(I136
I1280
tp3135
ag1692
asg484
(lp3136
(I198
I985
tp3137
a(I234
I970
tp3138
asg2641
(lp3139
(I728
I1005
tp3140
a(I694
I1021
tp3141
as(I1445
I1867
tp3142
(lp3143
(I1424
I1867
tp3144
ag2116
as(I219
I1907
tp3145
(lp3146
(I201
I1895
tp3147
a(I235
I1921
tp3148
asg473
(lp3149
(I1732
I613
tp3150
a(I1698
I614
tp3151
as(I1750
I883
tp3152
(lp3153
(I1769
I893
tp3154
ag350
asg361
(lp3155
(I1360
I1515
tp3156
a(I1384
I1551
tp3157
as(I896
I1865
tp3158
(lp3159
(I917
I1865
tp3160
a(I877
I1858
tp3161
asg2966
(lp3162
(I589
I603
tp3163
a(I631
I598
tp3164
as(I413
I583
tp3165
(lp3166
(I422
I603
tp3167
a(I431
I572
tp3168
ag1389
a(I398
I599
tp3169
asg645
(lp3170
(I1415
I409
tp3171
a(I1378
I409
tp3172
asg2844
(lp3173
(I1016
I1435
tp3174
a(I972
I1437
tp3175
as(I604
I278
tp3176
(lp3177
(I584
I287
tp3178
a(I624
I271
tp3179
as(I50
I1722
tp3180
(lp3181
(I70
I1722
tp3182
asg605
(lp3183
(I1028
I137
tp3184
a(I1053
I172
tp3185
as(I354
I1955
tp3186
(lp3187
(I354
I1977
tp3188
ag2876
as(I460
I1598
tp3189
(lp3190
(I460
I1618
tp3191
a(I461
I1577
tp3192
as(I386
I441
tp3193
(lp3194
(I392
I421
tp3195
ag1934
as(I282
I592
tp3196
(lp3197
(I281
I571
tp3198
ag172
asg385
(lp3199
(I154
I979
tp3200
a(I159
I1017
tp3201
a(I180
I992
tp3202
a(I143
I1006
tp3203
as(I328
I920
tp3204
(lp3205
(I339
I904
tp3206
a(I329
I939
tp3207
as(I134
I287
tp3208
(lp3209
(I115
I278
tp3210
ag2908
as(I300
I486
tp3211
(lp3212
(I318
I498
tp3213
a(I280
I477
tp3214
as(I1853
I599
tp3215
(lp3216
(I1851
I577
tp3217
a(I1865
I617
tp3218
as(I1263
I1160
tp3219
(lp3220
(I1264
I1172
tp3221
as(I1692
I878
tp3222
(lp3223
(I1709
I867
tp3224
a(I1673
I883
tp3225
a(I1713
I883
tp3226
asg2113
(lp3227
(I272
I1891
tp3228
a(I312
I1890
tp3229
as(I222
I626
tp3230
(lp3231
(I244
I624
tp3232
ag1557
as(I633
I41
tp3233
(lp3234
(I617
I54
tp3235
as(I818
I864
tp3236
(lp3237
(I799
I852
tp3238
ag1708
as(I674
I422
tp3239
(lp3240
(I653
I417
tp3241
ag157
as(I106
I1700
tp3242
(lp3243
(I111
I1709
tp3244
asg416
(lp3245
g414
a(I1681
I771
tp3246
asg46
(lp3247
(I807
I537
tp3248
a(I845
I538
tp3249
asg273
(lp3250
g271
a(I1511
I188
tp3251
a(I1493
I223
tp3252
as(I1424
I1600
tp3253
(lp3254
(I1414
I1581
tp3255
a(I1434
I1620
tp3256
as(I305
I1681
tp3257
(lp3258
(I324
I1689
tp3259
a(I295
I1663
tp3260
as(I529
I1680
tp3261
(lp3262
(I513
I1692
tp3263
ag1626
asg712
(lp3264
g710
ag2110
as(I422
I1673
tp3265
(lp3266
(I437
I1682
tp3267
ag2412
a(I404
I1684
tp3268
as(I1910
I1866
tp3269
(lp3270
(I1930
I1865
tp3271
ag3086
as(I299
I1246
tp3272
(lp3273
(I286
I1228
tp3274
a(I311
I1262
tp3275
asg413
(lp3276
(I1422
I579
tp3277
a(I1435
I550
tp3278
a(I1409
I556
tp3279
as(I863
I1265
tp3280
(lp3281
(I865
I1286
tp3282
asg2886
(lp3283
(I1021
I215
tp3284
a(I1044
I253
tp3285
asg1656
(lp3286
(I1278
I234
tp3287
a(I1281
I242
tp3288
ag2631
a(I1299
I205
tp3289
as(I210
I1894
tp3290
(lp3291
(I201
I1895
tp3292
ag793
as(I774
I1975
tp3293
(lp3294
(I795
I1983
tp3295
ag1818
asg1529
(lp3296
(I209
I88
tp3297
ag2542
as(I355
I893
tp3298
(lp3299
(I367
I878
tp3300
a(I339
I904
tp3301
as(I892
I1816
tp3302
(lp3303
(I905
I1825
tp3304
a(I871
I1820
tp3305
as(I199
I899
tp3306
(lp3307
(I205
I896
tp3308
a(I192
I901
tp3309
as(I76
I943
tp3310
(lp3311
(I57
I950
tp3312
ag39
as(I1713
I883
tp3313
(lp3314
(I1728
I897
tp3315
a(I1692
I878
tp3316
as(I1985
I758
tp3317
(lp3318
(I1965
I761
tp3319
a(I2006
I757
tp3320
asg2695
(lp3321
(I1874
I517
tp3322
a(I1877
I476
tp3323
as(I96
I1593
tp3324
(lp3325
(I112
I1605
tp3326
ag2173
as(I1121
I1572
tp3327
(lp3328
(I1124
I1567
tp3329
a(I1117
I1578
tp3330
asg191
(lp3331
(I607
I1504
tp3332
ag1981
as(I1376
I203
tp3333
(lp3334
(I1372
I223
tp3335
a(I1378
I182
tp3336
asg1889
(lp3337
(I1162
I99
tp3338
ag2790
asg123
(lp3339
(I442
I256
tp3340
a(I439
I216
tp3341
as(I1092
I1730
tp3342
(lp3343
(I1089
I1745
tp3344
a(I1095
I1716
tp3345
asg1944
(lp3346
(I317
I654
tp3347
a(I330
I693
tp3348
as(I1611
I166
tp3349
(lp3350
(I1614
I186
tp3351
a(I1600
I149
tp3352
asg3352
(lp3353
(I1611
I166
tp3354
a(I1580
I142
tp3355
asg1288
(lp3356
(I729
I1774
tp3357
ag1052
as(I51
I556
tp3358
(lp3359
(I54
I535
tp3360
a(I49
I576
tp3361
as(I451
I1798
tp3362
(lp3363
(I473
I1802
tp3364
a(I430
I1794
tp3365
as(I1621
I2001
tp3366
(lp3367
(I1630
I1980
tp3368
as(I713
I1479
tp3369
(lp3370
(I712
I1457
tp3371
ag489
as(I885
I51
tp3372
(lp3373
(I1433
I42
tp3374
a(I885
I73
tp3375
as(I867
I536
tp3376
(lp3377
(I888
I537
tp3378
a(I845
I538
tp3379
as(I41
I1677
tp3380
(lp3381
(I48
I1694
tp3382
as(I998
I1906
tp3383
(lp3384
(I992
I1921
tp3385
a(I1012
I1912
tp3386
asg85
(lp3387
(I1651
I420
tp3388
ag2943
asg2040
(lp3389
(I654
I1734
tp3390
a(I628
I1767
tp3391
as(I1614
I403
tp3392
(lp3393
(I1595
I411
tp3394
a(I1634
I407
tp3395
as(I825
I230
tp3396
(lp3397
(I805
I225
tp3398
a(I842
I220
tp3399
asg2161
(lp3400
(I128
I1798
tp3401
ag613
as(I627
I219
tp3402
(lp3403
(I608
I227
tp3404
a(I646
I212
tp3405
as(I1157
I1427
tp3406
(lp3407
(I1135
I1428
tp3408
a(I1179
I1426
tp3409
asg2824
(lp3410
(I1601
I270
tp3411
a(I1610
I228
tp3412
as(I724
I230
tp3413
(lp3414
(I704
I238
tp3415
a(I744
I222
tp3416
asg907
(lp3417
(I1563
I653
tp3418
a(I1541
I686
tp3419
as(I664
I254
tp3420
(lp3421
(I644
I262
tp3422
a(I684
I246
tp3423
as(I722
I1795
tp3424
(lp3425
(I713
I1816
tp3426
ag1285
as(I1115
I1461
tp3427
(lp3428
(I1114
I1445
tp3429
ag626
asg2671
(lp3430
(I217
I667
tp3431
a(I252
I692
tp3432
asg1937
(lp3433
(I384
I460
tp3434
a(I378
I500
tp3435
asg2433
(lp3436
(I707
I1545
tp3437
a(I701
I1588
tp3438
as(I963
I1274
tp3439
(lp3440
(I985
I1274
tp3441
a(I942
I1276
tp3442
as(I1097
I1555
tp3443
(lp3444
(I1102
I1536
tp3445
a(I1095
I1575
tp3446
as(I1209
I791
tp3447
(lp3448
(I1229
I796
tp3449
a(I1192
I777
tp3450
asg3120
(lp3451
(I66
I749
tp3452
ag2321
as(I644
I115
tp3453
(lp3454
(I665
I115
tp3455
ag535
asg1362
(lp3456
(I1228
I1395
tp3457
ag2751
asg242
(lp3458
(I1086
I1761
tp3459
ag200
as(I190
I1867
tp3460
(lp3461
(I186
I1863
tp3462
ag920
as(I1540
I58
tp3463
(lp3464
(I1540
I78
tp3465
a(I1545
I39
tp3466
asg1424
(lp3467
(I252
I1934
tp3468
a(I286
I1962
tp3469
asg3320
(lp3470
(I1985
I758
tp3471
asg195
(lp3472
(I247
I1670
tp3473
as(I431
I1890
tp3474
(lp3475
(I432
I1908
tp3476
a(I452
I1891
tp3477
a(I411
I1889
tp3478
as(I1959
I1665
tp3479
(lp3480
(I1937
I1668
tp3481
ag2369
asg1949
(lp3482
(I1113
I1429
tp3483
ag3406
asg3409
(lp3484
(I1157
I1427
tp3485
ag1890
as(I347
I153
tp3486
(lp3487
(I347
I131
tp3488
ag757
as(I186
I834
tp3489
(lp3490
(I190
I855
tp3491
ag2798
asg2662
(lp3492
(I262
I1054
tp3493
a(I268
I1091
tp3494
as(I834
I118
tp3495
(lp3496
(I820
I132
tp3497
ag2679
as(I853
I202
tp3498
(lp3499
(I842
I220
tp3500
a(I860
I183
tp3501
asg2070
(lp3502
(I1470
I1698
tp3503
ag505
asg266
(lp3504
(I920
I1718
tp3505
a(I938
I1690
tp3506
as(I1016
I583
tp3507
(lp3508
(I1036
I581
tp3509
as(I502
I598
tp3510
(lp3511
(I481
I597
tp3512
ag1025
as(I726
I955
tp3513
(lp3514
(I730
I963
tp3515
a(I723
I961
tp3516
a(I738
I937
tp3517
asg2211
(lp3518
(I1225
I688
tp3519
a(I1263
I683
tp3520
as(I125
I1013
tp3521
(lp3522
(I143
I1006
tp3523
ag1930
as(I1284
I283
tp3524
(lp3525
(I1278
I263
tp3526
ag1499
as(I1281
I1265
tp3527
(lp3528
(I1262
I1265
tp3529
a(I1300
I1263
tp3530
asg968
(lp3531
(I1749
I691
tp3532
a(I1749
I735
tp3533
as(I795
I1553
tp3534
(lp3535
(I801
I1573
tp3536
ag426
as(I385
I1596
tp3537
(lp3538
(I405
I1605
tp3539
a(I376
I1577
tp3540
as(I321
I843
tp3541
(lp3542
(I320
I822
tp3543
a(I306
I857
tp3544
as(I1069
I1761
tp3545
(lp3546
(I1065
I1745
tp3547
ag559
as(I79
I227
tp3548
(lp3549
(I87
I246
tp3550
a(I65
I212
tp3551
as(I503
I169
tp3552
(lp3553
(I487
I181
tp3554
ag1425
asg740
(lp3555
(I342
I92
tp3556
a(I347
I131
tp3557
as(I218
I299
tp3558
(lp3559
(I236
I308
tp3560
a(I199
I289
tp3561
asg1638
(lp3562
(I1179
I1112
tp3563
a(I1137
I1121
tp3564
as(I48
I1138
tp3565
(lp3566
(I67
I1133
tp3567
asg3301
(lp3568
(I355
I893
tp3569
ag3204
asg1246
(lp3570
(I1843
I124
tp3571
a(I1823
I161
tp3572
asg89
(lp3573
(I1392
I1975
tp3574
a(I1356
I1994
tp3575
as(I1769
I296
tp3576
(lp3577
(I1762
I276
tp3578
a(I1787
I305
tp3579
as(I665
I115
tp3580
(lp3581
(I686
I113
tp3582
ag3453
asg219
(lp3583
(I236
I760
tp3584
ag2560
asg2007
(lp3585
(I1265
I1184
tp3586
ag3219
as(I432
I1945
tp3587
(lp3588
(I432
I1963
tp3589
a(I432
I1926
tp3590
as(I241
I1520
tp3591
(lp3592
(I262
I1523
tp3593
a(I220
I1521
tp3594
asg2999
(lp3595
(I187
I1961
tp3596
a(I219
I1991
tp3597
asg1838
(lp3598
(I275
I90
tp3599
ag1171
as(I1258
I446
tp3600
(lp3601
(I1236
I442
tp3602
a(I1279
I449
tp3603
asg1984
(lp3604
(I603
I1460
tp3605
a(I598
I1416
tp3606
asg2981
(lp3607
(I1218
I617
tp3608
ag2732
as(I950
I1823
tp3609
(lp3610
(I968
I1814
tp3611
ag929
asg2896
(lp3612
(I1473
I286
tp3613
a(I1465
I330
tp3614
as(I1293
I104
tp3615
(lp3616
(I1298
I123
tp3617
a(I1287
I83
tp3618
asg1841
(lp3619
(I1761
I980
tp3620
a(I1720
I989
tp3621
as(I533
I398
tp3622
(lp3623
(I516
I387
tp3624
a(I548
I414
tp3625
asg854
(lp3626
(I238
I1961
tp3627
ag770
as(I1879
I945
tp3628
(lp3629
(I1894
I960
tp3630
a(I1860
I935
tp3631
asg2467
(lp3632
(I116
I1290
tp3633
ag3133
asg3009
(lp3634
(I747
I561
tp3635
a(I786
I545
tp3636
asg3391
(lp3637
(I641
I1751
tp3638
a(I615
I1784
tp3639
asg3336
(lp3640
(I1376
I203
tp3641
ag2572
asg3036
(lp3642
g3034
asg1995
(lp3643
(I221
I719
tp3644
ag216
as(I54
I535
tp3645
(lp3646
(I58
I515
tp3647
ag3358
as(I1524
I1942
tp3648
(lp3649
(I1540
I1927
tp3650
a(I1509
I1959
tp3651
as(I273
I1710
tp3652
(lp3653
(I293
I1717
tp3654
a(I261
I1694
tp3655
asg616
(lp3656
(I165
I1793
tp3657
a(I185
I1778
tp3658
as(I980
I1856
tp3659
(lp3660
(I998
I1866
tp3661
a(I958
I1855
tp3662
asg1730
(lp3663
(I1530
I1984
tp3664
a(I1495
I2010
tp3665
as(I281
I571
tp3666
(lp3667
(I281
I549
tp3668
ag3196
as(I1541
I378
tp3669
(lp3670
(I1543
I397
tp3671
a(I1547
I360
tp3672
a(I1532
I361
tp3673
as(I1486
I244
tp3674
(lp3675
(I1493
I223
tp3676
ag2056
as(I216
I532
tp3677
(lp3678
(I216
I551
tp3679
ag1096
as(I1951
I686
tp3680
(lp3681
(I1951
I705
tp3682
ag2696
as(I286
I864
tp3683
(lp3684
(I306
I857
tp3685
asg2758
(lp3686
(I134
I650
tp3687
a(I166
I648
tp3688
asg2479
(lp3689
(I331
I1300
tp3690
a(I362
I1328
tp3691
as(I665
I204
tp3692
(lp3693
(I646
I212
tp3694
a(I684
I196
tp3695
as(I905
I1825
tp3696
(lp3697
(I889
I1834
tp3698
ag3302
as(I156
I1985
tp3699
(lp3700
(I176
I1985
tp3701
a(I136
I1986
tp3702
asg144
(lp3703
(I331
I1734
tp3704
a(I293
I1717
tp3705
asg3147
(lp3706
g3145
ag893
ag3290
asg1119
(lp3707
(I698
I1393
tp3708
ag1064
asg2350
(lp3709
(I1228
I1804
tp3710
ag2120
as(I409
I1394
tp3711
(lp3712
(I406
I1373
tp3713
ag220
asg2143
(lp3714
g2141
ag1723
asg500
(lp3715
(I577
I1835
tp3716
ag1239
as(I512
I1447
tp3717
(lp3718
(I501
I1464
tp3719
as(I1926
I510
tp3720
(lp3721
(I1926
I489
tp3722
as(I203
I1335
tp3723
(lp3724
(I181
I1339
tp3725
a(I225
I1337
tp3726
as(I252
I948
tp3727
(lp3728
(I260
I929
tp3729
a(I249
I969
tp3730
as(I1612
I1751
tp3731
(lp3732
(I1593
I1744
tp3733
a(I1631
I1762
tp3734
as(I767
I1866
tp3735
(lp3736
(I774
I1886
tp3737
a(I773
I1845
tp3738
as(I1354
I450
tp3739
(lp3740
(I1359
I471
tp3741
ag2388
as(I1288
I525
tp3742
(lp3743
(I1267
I528
tp3744
a(I1307
I517
tp3745
asg3218
(lp3746
(I1853
I599
tp3747
a(I1886
I625
tp3748
as(I144
I1633
tp3749
(lp3750
(I163
I1639
tp3751
a(I128
I1619
tp3752
as(I1226
I536
tp3753
(lp3754
(I1206
I540
tp3755
a(I1247
I532
tp3756
as(I1229
I796
tp3757
(lp3758
(I1249
I789
tp3759
ag3447
asg857
(lp3760
(I327
I2013
tp3761
a(I354
I1977
tp3762
asg1253
(lp3763
(I362
I396
tp3764
a(I388
I367
tp3765
asg3469
(lp3766
(I269
I1948
tp3767
a(I302
I1978
tp3768
as(I711
I586
tp3769
(lp3770
(I693
I597
tp3771
ag2529
as(I603
I69
tp3772
(lp3773
(I617
I54
tp3774
ag1328
as(I270
I308
tp3775
(lp3776
(I254
I310
tp3777
ag1313
as(I1526
I830
tp3778
(lp3779
(I1546
I821
tp3780
ag2519
as(I558
I764
tp3781
(lp3782
(I577
I768
tp3783
ag2613
as(I1843
I841
tp3784
(lp3785
(I1863
I834
tp3786
ag1996
asg3621
(lp3787
(I1741
I988
tp3788
a(I1704
I975
tp3789
asg1901
(lp3790
(I522
I751
tp3791
a(I494
I726
tp3792
as(I799
I852
tp3793
(lp3794
(I787
I869
tp3795
a(I811
I834
tp3796
ag3236
as(I494
I1760
tp3797
(lp3798
(I474
I1756
tp3799
as(I1318
I464
tp3800
(lp3801
(I1325
I482
tp3802
a(I1300
I454
tp3803
asg3466
(lp3804
(I1540
I58
tp3805
as(I1249
I789
tp3806
(lp3807
(I1259
I770
tp3808
ag3757
asg10
(lp3809
(I1100
I1675
tp3810
a(I1095
I1716
tp3811
asg550
(lp3812
(I1228
I1539
tp3813
a(I1228
I1581
tp3814
asg657
(lp3815
(I795
I1594
tp3816
ag3534
as(I480
I1705
tp3817
(lp3818
(I492
I1693
tp3819
ag1902
as(I1202
I350
tp3820
(lp3821
(I1182
I341
tp3822
a(I1213
I368
tp3823
asg2659
(lp3824
(I67
I862
tp3825
a(I103
I849
tp3826
as(I160
I1952
tp3827
(lp3828
(I139
I1959
tp3829
a(I181
I1947
tp3830
as(I1729
I761
tp3831
(lp3832
(I1716
I772
tp3833
ag1545
asg3323
(lp3834
(I1879
I497
tp3835
ag799
asg1357
(lp3836
(I192
I1837
tp3837
a(I194
I1870
tp3838
asg2839
(lp3839
(I1475
I438
tp3840
ag1583
as(I943
I75
tp3841
(lp3842
(I964
I80
tp3843
a(I932
I75
tp3844
a(I927
I67
tp3845
as(I944
I1435
tp3846
(lp3847
(I950
I1436
tp3848
a(I938
I1435
tp3849
asg1188
(lp3850
(I345
I1694
tp3851
ag3257
asg2293
(lp3852
(I1052
I1752
tp3853
ag3545
asg3157
(lp3854
(I1370
I1534
tp3855
a(I1399
I1565
tp3856
as(I495
I1649
tp3857
(lp3858
(I477
I1656
tp3859
a(I501
I1631
tp3860
as(I703
I188
tp3861
(lp3862
(I682
I184
tp3863
a(I684
I196
tp3864
a(I723
I181
tp3865
asg156
(lp3866
(I1501
I1778
tp3867
a(I1489
I1738
tp3868
as(I1646
I1776
tp3869
(lp3870
(I1631
I1762
tp3871
ag2489
asg2279
(lp3872
g2277
asg77
(lp3873
(I595
I1394
tp3874
ag1231
as(I1471
I748
tp3875
(lp3876
(I1471
I769
tp3877
a(I1471
I726
tp3878
as(I117
I516
tp3879
(lp3880
(I104
I519
tp3881
a(I101
I502
tp3882
as(I762
I132
tp3883
(lp3884
(I752
I151
tp3885
a(I774
I114
tp3886
as(I104
I519
tp3887
(lp3888
(I87
I505
tp3889
ag3879
asg3575
(lp3890
(I1374
I1985
tp3891
ag945
as(I970
I514
tp3892
(lp3893
(I989
I505
tp3894
a(I950
I523
tp3895
as(I112
I337
tp3896
(lp3897
(I116
I334
tp3898
a(I110
I342
tp3899
as(I1880
I264
tp3900
(lp3901
(I1862
I252
tp3902
ag3107
asg393
(lp3903
(I416
I187
tp3904
a(I415
I146
tp3905
asg1916
(lp3906
(I86
I1771
tp3907
a(I112
I1806
tp3908
asg3116
(lp3909
(I1370
I1000
tp3910
a(I1354
I1041
tp3911
as(I188
I1947
tp3912
(lp3913
(I203
I1963
tp3914
ag1435
asg1234
(lp3915
(I583
I1352
tp3916
a(I553
I1319
tp3917
as(I178
I1856
tp3918
(lp3919
(I186
I1863
tp3920
ag1894
asg936
(lp3921
(I1097
I362
tp3922
ag1813
as(I1681
I1898
tp3923
(lp3924
(I1671
I1879
tp3925
ag2396
as(I901
I113
tp3926
(lp3927
(I887
I129
tp3928
a(I892
I94
tp3929
ag1056
as(I1485
I808
tp3930
(lp3931
(I1504
I816
tp3932
a(I1474
I790
tp3933
asg3029
(lp3934
(I548
I565
tp3935
ag2911
as(I1594
I750
tp3936
(lp3937
(I1576
I744
tp3938
a(I1596
I771
tp3939
asg2119
(lp3940
(I1461
I1878
tp3941
a(I1464
I1917
tp3942
as(I79
I1806
tp3943
(lp3944
(I94
I1823
tp3945
ag1076
asg2225
(lp3946
(I1047
I1272
tp3947
ag1682
as(I1100
I1706
tp3948
(lp3949
(I1095
I1716
tp3950
a(I1102
I1694
tp3951
asg2854
(lp3952
(I268
I1784
tp3953
a(I234
I1760
tp3954
as(I1492
I1837
tp3955
(lp3956
(I1475
I1850
tp3957
a(I1503
I1820
tp3958
asg3214
(lp3959
(I300
I486
tp3960
ag1752
as(I282
I1978
tp3961
(lp3962
(I266
I1963
tp3963
a(I295
I1996
tp3964
asg3691
(lp3965
(I346
I1315
tp3966
ag1742
asg1564
(lp3967
(I1088
I1356
tp3968
a(I1044
I1358
tp3969
as(I88
I1989
tp3970
(lp3971
(I104
I1988
tp3972
ag2355
asg1214
(lp3973
(I1614
I901
tp3974
a(I1653
I889
tp3975
as(I1347
I1340
tp3976
(lp3977
(I1348
I1359
tp3978
a(I1327
I1340
tp3979
a(I1346
I1321
tp3980
ag1611
asg1414
(lp3981
(I873
I144
tp3982
ag3926
as(I694
I1856
tp3983
(lp3984
(I686
I1877
tp3985
a(I704
I1836
tp3986
asg963
(lp3987
(I1802
I233
tp3988
a(I1767
I243
tp3989
as(I1919
I1680
tp3990
(lp3991
(I1905
I1696
tp3992
a(I1937
I1668
tp3993
as(I106
I1077
tp3994
(lp3995
(I112
I1094
tp3996
a(I100
I1061
tp3997
as(I436
I454
tp3998
(lp3999
(I419
I454
tp4000
ag1
as(I1594
I815
tp4001
(lp4002
(I1596
I793
tp4003
a(I1589
I835
tp4004
asg2864
(lp4005
(I593
I1549
tp4006
as(I349
I1760
tp4007
(lp4008
(I369
I1769
tp4009
a(I329
I1751
tp4010
asg105
(lp4011
(I758
I235
tp4012
ag828
asg293
(lp4013
(I1337
I625
tp4014
a(I1300
I625
tp4015
as(I1671
I1879
tp4016
(lp4017
(I1670
I1856
tp4018
ag3923
as(I1823
I161
tp4019
(lp4020
(I1818
I171
tp4021
a(I1832
I142
tp4022
a(I1844
I166
tp4023
as(I1843
I424
tp4024
(lp4025
(I1859
I437
tp4026
ag1572
as(I1433
I42
tp4027
(lp4028
(I1439
I63
tp4029
ag3372
asg1476
(lp4030
(I424
I1126
tp4031
a(I394
I1093
tp4032
as(I672
I1696
tp4033
(lp4034
(I678
I1675
tp4035
ag1269
asg1134
(lp4036
(I417
I547
tp4037
ag2817
asg760
(lp4038
(I347
I176
tp4039
ag3037
as(I574
I186
tp4040
(lp4041
(I553
I186
tp4042
a(I596
I186
tp4043
as(I374
I540
tp4044
(lp4045
(I372
I519
tp4046
a(I370
I560
tp4047
asg1513
(lp4048
(I1377
I141
tp4049
ag2212
as(I1522
I695
tp4050
(lp4051
(I1541
I686
tp4052
a(I1516
I716
tp4053
as(I848
I773
tp4054
(lp4055
(I834
I761
tp4056
a(I863
I787
tp4057
as(I1476
I869
tp4058
(lp4059
(I1490
I853
tp4060
a(I1463
I887
tp4061
as(I819
I814
tp4062
(lp4063
(I811
I834
tp4064
a(I813
I793
tp4065
as(I951
I1199
tp4066
(lp4067
(I969
I1197
tp4068
ag753
asg3745
(lp4069
(I1288
I525
tp4070
a(I1321
I503
tp4071
as(I1211
I1344
tp4072
(lp4073
(I1192
I1346
tp4074
a(I1230
I1344
tp4075
as(I969
I1197
tp4076
(lp4077
(I987
I1197
tp4078
ag4066
as(I1262
I1265
tp4079
(lp4080
(I1242
I1265
tp4081
a(I1264
I1276
tp4082
ag1143
ag3527
asg3594
(lp4083
(I241
I1520
tp4084
ag832
asg3830
(lp4085
(I160
I1952
tp4086
a(I203
I1945
tp4087
as(I1911
I796
tp4088
(lp4089
(I1898
I814
tp4090
a(I1927
I781
tp4091
as(I1594
I520
tp4092
(lp4093
(I1605
I506
tp4094
a(I1587
I537
tp4095
asg887
(lp4096
(I1022
I1362
tp4097
ag212
asg140
(lp4098
(I1659
I258
tp4099
a(I1663
I216
tp4100
asg571
(lp4101
(I1840
I880
tp4102
a(I1810
I911
tp4103
as(I210
I663
tp4104
(lp4105
(I203
I659
tp4106
ag2667
asg2658
(lp4107
g2656
as(I1274
I666
tp4108
(lp4109
(I1263
I683
tp4110
a(I1276
I646
tp4111
as(I336
I1975
tp4112
(lp4113
(I319
I1969
tp4114
a(I354
I1977
tp4115
as(I186
I1893
tp4116
(lp4117
(I199
I1911
tp4118
a(I173
I1877
tp4119
asg1024
(lp4120
(I1838
I562
tp4121
ag1696
asg223
(lp4122
(I406
I1415
tp4123
a(I380
I1448
tp4124
asg2859
(lp4125
g2857
asg819
(lp4126
(I283
I722
tp4127
a(I306
I759
tp4128
as(I260
I1927
tp4129
(lp4130
(I246
I1916
tp4131
a(I273
I1938
tp4132
as(I787
I482
tp4133
(lp4134
(I774
I498
tp4135
a(I799
I463
tp4136
as(I1038
I293
tp4137
(lp4138
(I1048
I274
tp4139
ag721
as(I1234
I38
tp4140
(lp4141
(I1242
I58
tp4142
as(I1265
I1204
tp4143
(lp4144
(I1266
I1225
tp4145
ag2004
asg3069
(lp4146
(I1746
I535
tp4147
a(I1783
I521
tp4148
asg1552
(lp4149
(I1772
I912
tp4150
ag3152
as(I1104
I1232
tp4151
(lp4152
(I1105
I1251
tp4153
ag1084
as(I1716
I936
tp4154
(lp4155
(I1704
I954
tp4156
a(I1729
I918
tp4157
asg1079
(lp4158
(I63
I1790
tp4159
a(I36
I1728
tp4160
asg14
(lp4161
(I1178
I1741
tp4162
ag1906
as(I985
I1879
tp4163
(lp4164
(I971
I1891
tp4165
a(I998
I1866
tp4166
as(I1733
I784
tp4167
(lp4168
(I1716
I772
tp4169
a(I1751
I795
tp4170
as(I1366
I1183
tp4171
(lp4172
(I1347
I1185
tp4173
asg1835
(lp4174
(I1348
I1729
tp4175
ag255
as(I1915
I693
tp4176
(lp4177
(I1896
I694
tp4178
a(I1933
I697
tp4179
asg3168
(lp4180
(I413
I583
tp4181
a(I451
I567
tp4182
as(I1945
I768
tp4183
(lp4184
(I1927
I781
tp4185
a(I1932
I760
tp4186
a(I1965
I761
tp4187
as(I1413
I1845
tp4188
(lp4189
(I1393
I1839
tp4190
ag706
as(I1751
I795
tp4191
(lp4192
(I1768
I808
tp4193
a(I1733
I784
tp4194
a(I1750
I775
tp4195
asg365
(lp4196
(I921
I1279
tp4197
asg1011
(lp4198
(I1219
I740
tp4199
a(I1258
I749
tp4200
asg1858
(lp4201
g1856
ag2915
as(I1907
I978
tp4202
(lp4203
(I1918
I997
tp4204
a(I1894
I960
tp4205
asg3544
(lp4206
(I321
I843
tp4207
ag3683
as(I1267
I528
tp4208
(lp4209
(I1247
I532
tp4210
ag3742
asg4057
(lp4211
(I848
I773
tp4212
a(I858
I805
tp4213
ag1462
asg1312
(lp4214
(I368
I1656
tp4215
ag125
asg992
(lp4216
(I1211
I1494
tp4217
ag1630
asg1524
(lp4218
(I425
I330
tp4219
ag2051
as(I273
I1774
tp4220
(lp4221
(I293
I1781
tp4222
ag618
asg785
(lp4223
(I824
I1749
tp4224
a(I828
I1708
tp4225
as(I943
I1912
tp4226
(lp4227
(I958
I1902
tp4228
ag986
a(I922
I1916
tp4229
asg2871
(lp4230
(I586
I734
tp4231
ag1123
as(I867
I1307
tp4232
(lp4233
(I868
I1328
tp4234
a(I865
I1286
tp4235
as(I57
I1612
tp4236
(lp4237
(I39
I1601
tp4238
ag378
asg4010
(lp4239
(I349
I1760
tp4240
a(I309
I1741
tp4241
asg1331
(lp4242
(I588
I83
tp4243
a(I559
I112
tp4244
as(I1224
I113
tp4245
(lp4246
(I1241
I100
tp4247
a(I1202
I114
tp4248
as(I1959
I1975
tp4249
(lp4250
(I1960
I1954
tp4251
a(I1954
I1995
tp4252
as(I1177
I695
tp4253
(lp4254
(I1171
I674
tp4255
a(I1188
I712
tp4256
as(I1325
I482
tp4257
(lp4258
(I1321
I503
tp4259
ag3800
asg2081
(lp4260
(I158
I668
tp4261
a(I185
I651
tp4262
a(I150
I648
tp4263
a(I173
I629
tp4264
asg2754
(lp4265
(I1271
I1393
tp4266
ag543
asg3465
(lp4267
g3463
asg4124
(lp4268
(I395
I1433
tp4269
a(I377
I1469
tp4270
a(I402
I1451
tp4271
as(I863
I162
tp4272
(lp4273
(I860
I183
tp4274
ag1411
asg2012
(lp4275
(I474
I387
tp4276
a(I516
I387
tp4277
asg2777
(lp4278
(I1164
I1269
tp4279
a(I1125
I1271
tp4280
as(I913
I1362
tp4281
(lp4282
(I934
I1362
tp4283
a(I893
I1357
tp4284
asg4032
(lp4285
(I410
I1109
tp4286
ag3000
asg1610
(lp4287
(I162
I1335
tp4288
ag3723
asg2232
(lp4289
(I125
I1854
tp4290
a(I94
I1823
tp4291
asg2365
(lp4292
(I981
I163
tp4293
ag3070
as(I1920
I871
tp4294
(lp4295
(I1911
I857
tp4296
a(I1931
I884
tp4297
as(I392
I404
tp4298
(lp4299
(I395
I387
tp4300
a(I392
I421
tp4301
asg1138
(lp4302
(I90
I379
tp4303
a(I110
I342
tp4304
asg3803
(lp4305
(I1318
I464
tp4306
a(I1279
I449
tp4307
as(I273
I1211
tp4308
(lp4309
(I271
I1191
tp4310
a(I286
I1228
tp4311
as(I333
I1792
tp4312
(lp4313
(I353
I1797
tp4314
a(I313
I1786
tp4315
as(I376
I1534
tp4316
(lp4317
(I376
I1555
tp4318
ag3041
as(I265
I251
tp4319
(lp4320
(I251
I237
tp4321
a(I255
I266
tp4322
asg2453
(lp4323
g2451
as(I110
I1720
tp4324
(lp4325
(I90
I1721
tp4326
ag2041
a(I111
I1709
tp4327
as(I704
I102
tp4328
(lp4329
(I716
I85
tp4330
a(I686
I113
tp4331
as(I1897
I1739
tp4332
(lp4333
(I1899
I1761
tp4334
a(I1898
I1717
tp4335
asg1929
(lp4336
(I1519
I1891
tp4337
a(I1561
I1882
tp4338
asg883
(lp4339
(I1650
I328
tp4340
ag2900
asg3399
(lp4341
(I825
I230
tp4342
ag3498
as(I938
I1860
tp4343
(lp4344
(I958
I1855
tp4345
a(I917
I1865
tp4346
asg4132
(lp4347
(I260
I1927
tp4348
a(I263
I1935
tp4349
ag1842
as(I1049
I1789
tp4350
(lp4351
(I1054
I1781
tp4352
ag1399
a(I1047
I1788
tp4353
as(I313
I779
tp4354
(lp4355
(I306
I759
tp4356
ag2952
asg3256
(lp4357
(I1424
I1600
tp4358
a(I1443
I1640
tp4359
asg2875
(lp4360
(I660
I185
tp4361
ag3861
asg2240
(lp4362
(I1966
I358
tp4363
ag1639
as(I1156
I571
tp4364
(lp4365
(I1168
I554
tp4366
ag133
a(I1155
I592
tp4367
as(I493
I1809
tp4368
(lp4369
(I511
I1797
tp4370
a(I473
I1802
tp4371
ag2949
asg3348
(lp4372
(I320
I675
tp4373
ag2759
as(I1105
I1251
tp4374
(lp4375
(I1106
I1271
tp4376
ag4151
as(I1605
I506
tp4377
(lp4378
(I1614
I490
tp4379
ag4092
as(I456
I1686
tp4380
(lp4381
(I474
I1689
tp4382
a(I437
I1682
tp4383
as(I213
I915
tp4384
(lp4385
(I205
I896
tp4386
ag2336
asg2342
(lp4387
(I1556
I1912
tp4388
ag3648
asg1043
(lp4389
(I1051
I1769
tp4390
a(I1062
I1776
tp4391
as(I1196
I1520
tp4392
(lp4393
(I1180
I1520
tp4394
ag1514
as(I1188
I1326
tp4395
(lp4396
(I1192
I1346
tp4397
ag2642
as(I1369
I1415
tp4398
(lp4399
(I1350
I1416
tp4400
a(I1388
I1415
tp4401
asg1737
(lp4402
(I157
I385
tp4403
ag1386
as(I1173
I767
tp4404
(lp4405
(I1192
I777
tp4406
a(I1151
I769
tp4407
asg2259
(lp4408
(I184
I1635
tp4409
ag3749
as(I1698
I772
tp4410
(lp4411
(I1716
I772
tp4412
a(I1681
I771
tp4413
as(I902
I709
tp4414
(lp4415
(I907
I729
tp4416
a(I898
I688
tp4417
asg2339
(lp4418
(I220
I933
tp4419
a(I234
I970
tp4420
as(I1795
I643
tp4421
(lp4422
(I1795
I622
tp4423
as(I1585
I1949
tp4424
(lp4425
(I1607
I1948
tp4426
a(I1564
I1956
tp4427
asg4229
(lp4428
(I943
I1912
tp4429
ag1576
asg3540
(lp4430
(I385
I1596
tp4431
a(I376
I1555
tp4432
asg2236
(lp4433
(I307
I890
tp4434
ag2384
asg4087
(lp4435
(I181
I1947
tp4436
ag2400
asg3557
(lp4437
(I346
I109
tp4438
ag3486
as(I1471
I769
tp4439
(lp4440
(I1474
I790
tp4441
ag3875
as(I1915
I1825
tp4442
(lp4443
(I1922
I1845
tp4444
ag466
as(I1247
I79
tp4445
(lp4446
(I1242
I58
tp4447
a(I1241
I100
tp4448
asg504
(lp4449
(I1669
I1834
tp4450
ag4016
asg488
(lp4451
(I323
I1129
tp4452
asg4297
(lp4453
(I1920
I871
tp4454
a(I1943
I894
tp4455
asg3260
(lp4456
(I305
I1681
tp4457
a(I289
I1643
tp4458
asg2471
(lp4459
(I1163
I634
tp4460
a(I1171
I674
tp4461
as(I1108
I1312
tp4462
(lp4463
(I1108
I1333
tp4464
a(I1107
I1291
tp4465
asg2008
(lp4466
(I1265
I1184
tp4467
a(I1299
I1179
tp4468
as(I825
I618
tp4469
(lp4470
(I836
I600
tp4471
ag2930
asg4427
(lp4472
(I1585
I1949
tp4473
ag2483
asg2807
(lp4474
(I293
I1148
tp4475
ag485
asg2023
(lp4476
(I1392
I467
tp4477
a(I1414
I500
tp4478
asg4394
(lp4479
g4392
as(I1308
I1341
tp4480
(lp4481
(I1288
I1342
tp4482
a(I1327
I1340
tp4483
asg2269
(lp4484
(I1844
I242
tp4485
ag3900
asg2509
(lp4486
(I1258
I749
tp4487
ag3806
asg2376
(lp4488
(I1923
I206
tp4489
ag820
asg3639
(lp4490
(I628
I1767
tp4491
a(I602
I1801
tp4492
asg4235
(lp4493
(I867
I1307
tp4494
ag3280
asg4277
(lp4495
(I495
I388
tp4496
ag3622
as(I1268
I1288
tp4497
(lp4498
(I1264
I1276
tp4499
asg2867
(lp4500
(I502
I1601
tp4501
a(I478
I1613
tp4502
a(I501
I1631
tp4503
as(I599
I1656
tp4504
(lp4505
(I602
I1635
tp4506
a(I595
I1677
tp4507
asg3124
(lp4508
(I1430
I331
tp4509
a(I1465
I330
tp4510
asg3614
(lp4511
(I1468
I308
tp4512
a(I1448
I330
tp4513
a(I1485
I331
tp4514
asg2030
(lp4515
(I470
I191
tp4516
ag3552
asg1795
(lp4517
(I1107
I1150
tp4518
a(I1102
I1192
tp4519
as(I112
I638
tp4520
(lp4521
(I119
I655
tp4522
ag2553
as(I66
I1911
tp4523
(lp4524
(I44
I1910
tp4525
a(I88
I1914
tp4526
as(I174
I524
tp4527
(lp4528
(I154
I517
tp4529
a(I176
I507
tp4530
a(I196
I521
tp4531
asg601
(lp4532
(I158
I1914
tp4533
a(I128
I1882
tp4534
asg1181
(lp4535
(I785
I217
tp4536
ag3396
as(I994
I714
tp4537
(lp4538
(I974
I707
tp4539
a(I1014
I707
tp4540
asg4525
(lp4541
g4523
as(I478
I1613
tp4542
(lp4543
(I460
I1618
tp4544
a(I495
I1614
tp4545
as(I1510
I260
tp4546
(lp4547
(I1526
I268
tp4548
asg1265
(lp4549
(I67
I251
tp4550
ag2960
as(I1262
I1092
tp4551
(lp4552
(I1282
I1083
tp4553
a(I1243
I1101
tp4554
as(I592
I754
tp4555
(lp4556
(I577
I768
tp4557
ag2868
asg4483
(lp4558
(I1308
I1341
tp4559
a(I1347
I1340
tp4560
asg3405
(lp4561
(I627
I219
tp4562
ag3692
as(I773
I1492
tp4563
(lp4564
(I777
I1513
tp4565
ag346
asg3606
(lp4566
(I601
I1438
tp4567
ag74
as(I836
I600
tp4568
(lp4569
(I843
I580
tp4570
ag4469
as(I112
I1785
tp4571
(lp4572
(I112
I1806
tp4573
ag1669
asg3844
(lp4574
(I943
I75
tp4575
a(I921
I76
tp4576
asg3899
(lp4577
(I112
I337
tp4578
a(I89
I341
tp4579
a(I105
I363
tp4580
asg480
(lp4581
(I1795
I927
tp4582
ag1549
asg1170
(lp4583
(I1096
I575
tp4584
a(I1056
I580
tp4585
asg3361
(lp4586
(I51
I556
tp4587
ag2619
as(I1613
I207
tp4588
(lp4589
(I1610
I228
tp4590
a(I1614
I186
tp4591
as(I1298
I123
tp4592
(lp4593
(I1301
I144
tp4594
ag3615
asg2661
(lp4595
(I262
I1054
tp4596
a(I237
I1077
tp4597
as(I286
I1622
tp4598
(lp4599
(I289
I1643
tp4600
a(I278
I1603
tp4601
as(I1554
I839
tp4602
(lp4603
(I1546
I821
tp4604
a(I1556
I859
tp4605
asg1950
(lp4606
(I1113
I1429
tp4607
a(I1071
I1431
tp4608
as(I242
I969
tp4609
(lp4610
(I234
I970
tp4611
a(I249
I969
tp4612
as(I1237
I1739
tp4613
(lp4614
(I1227
I1721
tp4615
ag2985
as(I596
I370
tp4616
(lp4617
(I578
I364
tp4618
a(I617
I370
tp4619
asg338
(lp4620
(I1274
I254
tp4621
ag3524
a(I1281
I242
tp4622
asg2820
(lp4623
(I413
I510
tp4624
a(I406
I473
tp4625
ag2169
asg3993
(lp4626
(I1919
I1680
tp4627
ag3479
asg3419
(lp4628
(I1558
I673
tp4629
ag4050
as(I327
I885
tp4630
(lp4631
(I346
I878
tp4632
ag2233
asg1831
(lp4633
g1829
ag2502
as(I82
I484
tp4634
(lp4635
(I80
I463
tp4636
a(I87
I505
tp4637
as(I1222
I1108
tp4638
(lp4639
(I1243
I1101
tp4640
ag1822
asg4353
(lp4641
(I1049
I1789
tp4642
a(I1045
I1787
tp4643
asg2699
(lp4644
(I1951
I667
tp4645
asg2272
(lp4646
g2270
ag3896
a(I111
I317
tp4647
as(I1595
I289
tp4648
(lp4649
(I1595
I310
tp4650
ag2821
as(I130
I1928
tp4651
(lp4652
(I109
I1920
tp4653
a(I150
I1937
tp4654
as(I1361
I513
tp4655
(lp4656
(I1349
I531
tp4657
ag2811
as(I1363
I357
tp4658
(lp4659
(I1380
I348
tp4660
a(I1346
I363
tp4661
as(I1109
I1353
tp4662
(lp4663
(I1128
I1349
tp4664
a(I1110
I1372
tp4665
a(I1108
I1333
tp4666
ag1561
asg3006
(lp4667
(I1367
I263
tp4668
a(I1372
I223
tp4669
as(I141
I500
tp4670
(lp4671
(I142
I479
tp4672
a(I154
I517
tp4673
asg1339
(lp4674
(I520
I499
tp4675
ag3111
asg2015
(lp4676
(I1037
I1830
tp4677
ag2702
asg521
(lp4678
(I79
I1873
tp4679
a(I119
I1889
tp4680
asg1347
(lp4681
(I1351
I1436
tp4682
a(I1339
I1417
tp4683
ag4398
ag2545
asg58
(lp4684
(I1518
I439
tp4685
a(I1560
I437
tp4686
asg4061
(lp4687
(I1476
I869
tp4688
a(I1449
I904
tp4689
asg4071
(lp4690
(I1307
I517
tp4691
ag4257
as(I1898
I814
tp4692
(lp4693
(I1885
I832
tp4694
ag4088
asg2435
(lp4695
(I67
I476
tp4696
ag4634
asg3506
(lp4697
(I938
I1707
tp4698
a(I928
I1672
tp4699
as(I1667
I497
tp4700
(lp4701
(I1650
I492
tp4702
ag1407
asg2599
(lp4703
(I1795
I602
tp4704
ag4421
as(I1262
I1931
tp4705
(lp4706
(I1279
I1919
tp4707
ag2939
asg3980
(lp4708
(I1347
I1340
tp4709
a(I1345
I1302
tp4710
asg2972
(lp4711
(I423
I625
tp4712
a(I423
I669
tp4713
as(I1555
I324
tp4714
(lp4715
(I1575
I318
tp4716
ag2151
a(I1551
I342
tp4717
asg3843
(lp4718
g3841
a(I983
I90
tp4719
as(I1724
I130
tp4720
(lp4721
(I1728
I151
tp4722
a(I1719
I109
tp4723
as(I501
I1464
tp4724
(lp4725
(I490
I1480
tp4726
ag3717
asg4291
(lp4727
(I109
I1838
tp4728
ag3943
asg3229
(lp4729
(I292
I1891
tp4730
a(I332
I1889
tp4731
asg73
(lp4732
(I1122
I1191
tp4733
ag1920
asg1055
(lp4734
(I741
I1731
tp4735
a(I743
I1687
tp4736
asg3942
(lp4737
(I1469
I1897
tp4738
a(I1455
I1932
tp4739
a(I1449
I1925
tp4740
asg2168
(lp4741
(I1527
I175
tp4742
ag339
asg2556
(lp4743
(I106
I622
tp4744
ag610
as(I66
I1856
tp4745
(lp4746
(I55
I1837
tp4747
ag518
as(I200
I1768
tp4748
(lp4749
(I216
I1760
tp4750
a(I185
I1778
tp4751
as(I55
I1837
tp4752
(lp4753
(I43
I1818
tp4754
ag4745
as(I170
I1895
tp4755
(lp4756
(I177
I1895
tp4757
a(I163
I1895
tp4758
asg919
(lp4759
(I917
I746
tp4760
ag4414
as(I546
I796
tp4761
(lp4762
(I525
I791
tp4763
a(I560
I780
tp4764
as(I507
I1272
tp4765
(lp4766
(I522
I1288
tp4767
ag232
asg1653
(lp4768
(I1851
I1916
tp4769
a(I1852
I1960
tp4770
asg1780
(lp4771
g1778
a(I490
I767
tp4772
as(I171
I1591
tp4773
(lp4774
(I156
I1602
tp4775
asg3185
(lp4776
(I1041
I154
tp4777
a(I1066
I190
tp4778
asg1629
(lp4779
(I544
I1665
tp4780
asg3625
(lp4781
(I533
I398
tp4782
ag807
asg4238
(lp4783
g4236
asg4401
(lp4784
(I1369
I1415
tp4785
ag733
asg4053
(lp4786
(I1522
I695
tp4787
ag1704
as(I1002
I492
tp4788
(lp4789
(I989
I505
tp4790
a(I1007
I510
tp4791
asg928
(lp4792
(I754
I1429
tp4793
ag2982
as(I271
I1191
tp4794
(lp4795
(I271
I1169
tp4796
ag4308
as(I226
I325
tp4797
(lp4798
(I236
I308
tp4799
a(I216
I343
tp4800
as(I392
I421
tp4801
(lp4802
(I397
I438
tp4803
a(I392
I404
tp4804
ag3193
asg2324
(lp4805
(I81
I789
tp4806
ag2096
asg1875
(lp4807
(I478
I1497
tp4808
ag4724
asg3060
(lp4809
(I191
I1817
tp4810
a(I185
I1778
tp4811
as(I843
I580
tp4812
(lp4813
(I848
I559
tp4814
ag4568
as(I788
I1656
tp4815
(lp4816
(I800
I1675
tp4817
ag843
asg3249
(lp4818
(I827
I530
tp4819
a(I867
I536
tp4820
a(I848
I559
tp4821
asg2924
(lp4822
(I1006
I1927
tp4823
a(I1014
I1939
tp4824
as(I1186
I545
tp4825
(lp4826
(I1168
I554
tp4827
a(I1206
I540
tp4828
asg4554
(lp4829
(I1262
I1092
tp4830
ag4638
as(I1744
I576
tp4831
(lp4832
(I1737
I559
tp4833
ag1294
asg3734
(lp4834
(I1612
I1751
tp4835
ag3869
as(I733
I419
tp4836
(lp4837
(I715
I430
tp4838
a(I743
I400
tp4839
as(I458
I1558
tp4840
(lp4841
(I461
I1577
tp4842
a(I449
I1539
tp4843
asg3435
(lp4844
(I381
I481
tp4845
a(I372
I519
tp4846
as(I1343
I1243
tp4847
(lp4848
(I1343
I1262
tp4849
ag78
asg558
(lp4850
(I1561
I611
tp4851
ag904
as(I915
I49
tp4852
(lp4853
(I911
I66
tp4854
a(I915
I51
tp4855
as(I145
I1844
tp4856
(lp4857
(I160
I1859
tp4858
ag810
as(I1307
I365
tp4859
(lp4860
(I1307
I387
tp4861
a(I1292
I365
tp4862
a(I1326
I365
tp4863
asg4839
(lp4864
(I733
I419
tp4865
a(I741
I379
tp4866
as(I1477
I1973
tp4867
(lp4868
(I1489
I1959
tp4869
ag908
as(I1390
I547
tp4870
(lp4871
(I1409
I556
tp4872
as(I1332
I1673
tp4873
(lp4874
(I1327
I1656
tp4875
a(I1337
I1690
tp4876
asg3365
(lp4877
(I451
I1798
tp4878
a(I409
I1786
tp4879
asg4160
(lp4880
(I48
I1774
tp4881
ag2493
asg1291
(lp4882
g1289
ag4831
as(I254
I310
tp4883
(lp4884
(I236
I308
tp4885
ag3775
as(I1269
I1342
tp4886
(lp4887
(I1249
I1343
tp4888
a(I1270
I1359
tp4889
a(I1288
I1342
tp4890
as(I1032
I1448
tp4891
(lp4892
(I1034
I1469
tp4893
ag2841
asg3127
(lp4894
g3125
ag3460
ag3918
as(I1795
I581
tp4895
(lp4896
(I1794
I561
tp4897
ag2596
asg3590
(lp4898
(I432
I1945
tp4899
a(I432
I1908
tp4900
as(I1926
I489
tp4901
(lp4902
(I1926
I467
tp4903
ag3720
asg4412
(lp4904
g4410
ag3831
ag4167
asg4534
(lp4905
(I143
I1898
tp4906
a(I112
I1866
tp4907
asg1293
(lp4908
(I1728
I543
tp4909
a(I1699
I513
tp4910
asg455
(lp4911
(I1200
I1482
tp4912
a(I1166
I1507
tp4913
asg2747
(lp4914
(I434
I1748
tp4915
a(I393
I1741
tp4916
asg3089
(lp4917
(I1889
I1864
tp4918
a(I1851
I1853
tp4919
as(I1249
I1343
tp4920
(lp4921
(I1230
I1344
tp4922
ag4886
asg951
(lp4923
(I1936
I1879
tp4924
ag1466
a(I1950
I1912
tp4925
as(I1743
I1912
tp4926
(lp4927
(I1721
I1912
tp4928
a(I1765
I1911
tp4929
asg3911
(lp4930
(I1362
I1021
tp4931
a(I1341
I1058
tp4932
asg3040
(lp4933
(I347
I220
tp4934
ag1449
asg4576
(lp4935
(I932
I75
tp4936
a(I913
I78
tp4937
ag1756
asg4004
(lp4938
(I1594
I815
tp4939
a(I1584
I856
tp4940
as(I946
I1373
tp4941
(lp4942
(I947
I1394
tp4943
a(I934
I1362
tp4944
asg231
(lp4945
(I910
I791
tp4946
a(I944
I769
tp4947
asg373
(lp4948
(I64
I1368
tp4949
ag2204
as(I1632
I490
tp4950
(lp4951
(I1614
I490
tp4952
a(I1650
I492
tp4953
as(I452
I1891
tp4954
(lp4955
(I473
I1893
tp4956
a(I431
I1890
tp4957
asg892
(lp4958
(I110
I1724
tp4959
a(I143
I1739
tp4960
asg3102
(lp4961
(I1728
I442
tp4962
ag2288
asg349
(lp4963
(I767
I1470
tp4964
ag925
asg2199
(lp4965
g2197
a(I176
I507
tp4966
asg4182
(lp4967
(I431
I572
tp4968
a(I465
I583
tp4969
as(I141
I1892
tp4970
(lp4971
(I119
I1889
tp4972
a(I163
I1895
tp4973
as(I398
I958
tp4974
(lp4975
(I420
I958
tp4976
a(I376
I958
tp4977
as(I432
I1981
tp4978
(lp4979
(I432
I1963
tp4980
ag1247
a(I435
I2000
tp4981
asg3989
(lp4982
(I1785
I240
tp4983
a(I1749
I247
tp4984
as(I578
I364
tp4985
(lp4986
(I577
I344
tp4987
ag4616
asg2140
(lp4988
(I1452
I149
tp4989
ag2089
as(I70
I1722
tp4990
(lp4991
(I90
I1721
tp4992
ag3180
as(I218
I1979
tp4993
(lp4994
(I233
I1995
tp4995
a(I203
I1963
tp4996
as(I1015
I118
tp4997
(lp4998
(I1001
I102
tp4999
ag602
as(I270
I1805
tp5000
(lp5001
(I271
I1827
tp5002
ag2851
as(I486
I254
tp5003
(lp5004
(I464
I254
tp5005
ag686
asg2404
(lp5006
(I1989
I817
tp5007
a(I1953
I834
tp5008
asg4075
(lp5009
(I1211
I1344
tp5010
ag4920
asg445
(lp5011
(I1432
I917
tp5012
a(I1397
I942
tp5013
as(I1327
I1417
tp5014
(lp5015
(I1339
I1417
tp5016
asg278
(lp5017
(I1512
I421
tp5018
a(I1543
I397
tp5019
as(I119
I2002
tp5020
(lp5021
(I116
I1987
tp5022
asg3279
(lp5023
(I1428
I564
tp5024
ag4870
asg3423
(lp5025
(I664
I254
tp5026
a(I704
I238
tp5027
as(I110
I867
tp5028
(lp5029
(I117
I885
tp5030
a(I103
I849
tp5031
asg1441
(lp5032
(I1989
I265
tp5033
asg509
(lp5034
(I1489
I1738
tp5035
a(I1530
I1738
tp5036
as(I1922
I1845
tp5037
(lp5038
(I1930
I1865
tp5039
ag4442
as(I1626
I1960
tp5040
(lp5041
(I1630
I1980
tp5042
a(I1607
I1948
tp5043
asg4335
(lp5044
(I1897
I1739
tp5045
a(I1905
I1696
tp5046
asg3933
(lp5047
(I1485
I808
tp5048
ag4439
as(I887
I826
tp5049
(lp5050
(I875
I845
tp5051
ag873
a(I871
I817
tp5052
as(I816
I1689
tp5053
(lp5054
(I828
I1708
tp5055
a(I800
I1675
tp5056
asg2207
(lp5057
(I43
I1353
tp5058
a(I74
I1296
tp5059
asg1909
(lp5060
(I1207
I1714
tp5061
ag4613
as(I1124
I1567
tp5062
(lp5063
(I1140
I1578
tp5064
ag1860
ag3327
asg1276
(lp5065
(I230
I1408
tp5066
ag1799
asg2245
(lp5067
(I1189
I1346
tp5068
ag4395
ag4072
asg2893
(lp5069
(I753
I492
tp5070
ag4133
asg1954
(lp5071
(I1323
I1639
tp5072
ag4873
asg3044
(lp5073
(I376
I1512
tp5074
ag2904
as(I1348
I1359
tp5075
(lp5076
(I1349
I1378
tp5077
ag3976
as(I395
I387
tp5078
(lp5079
(I401
I370
tp5080
ag4298
asg1749
(lp5081
(I350
I564
tp5082
ag2262
as(I791
I102
tp5083
(lp5084
(I774
I114
tp5085
ag1442
asg2567
(lp5086
(I516
I1890
tp5087
a(I473
I1893
tp5088
asg955
(lp5089
(I1678
I59
tp5090
asg4980
(lp5091
g4978
ag3587
asg4327
(lp5092
(I110
I1720
tp5093
ag3242
as(I112
I1605
tp5094
(lp5095
(I128
I1619
tp5096
ag3324
as(I1900
I390
tp5097
(lp5098
(I1888
I373
tp5099
a(I1911
I408
tp5100
asg976
(lp5101
(I1551
I1739
tp5102
a(I1593
I1744
tp5103
as(I1559
I899
tp5104
(lp5105
(I1556
I880
tp5106
ag2226
as(I729
I987
tp5107
(lp5108
(I724
I969
tp5109
ag2638
asg2988
(lp5110
(I1236
I1762
tp5111
ag2347
as(I1449
I1925
tp5112
(lp5113
(I1434
I1933
tp5114
a(I1464
I1917
tp5115
as(I357
I772
tp5116
(lp5117
(I354
I751
tp5118
a(I360
I793
tp5119
as(I930
I530
tp5120
(lp5121
(I950
I523
tp5122
ag286
as(I402
I1451
tp5123
(lp5124
(I424
I1451
tp5125
a(I380
I1448
tp5126
as(I1310
I1637
tp5127
(lp5128
(I1318
I1621
tp5129
ag94
as(I109
I1920
tp5130
(lp5131
(I88
I1914
tp5132
ag4651
asg5109
(lp5133
g5107
a(I730
I963
tp5134
ag1615
asg1385
(lp5135
(I1972
I622
tp5136
a(I1994
I659
tp5137
as(I1455
I1932
tp5138
(lp5139
(I1440
I1942
tp5140
a(I1464
I1917
tp5141
asg1480
(lp5142
(I213
I590
tp5143
a(I216
I551
tp5144
as(I787
I869
tp5145
(lp5146
(I775
I886
tp5147
ag3793
asg1059
(lp5148
(I921
I106
tp5149
ag243
asg2129
(lp5150
(I101
I303
tp5151
a(I68
I289
tp5152
asg4686
(lp5153
(I1539
I439
tp5154
ag2646
asg4637
(lp5155
(I82
I484
tp5156
ag3887
as(I235
I272
tp5157
(lp5158
(I255
I266
tp5159
ag3052
asg849
(lp5160
g847
a(I986
I1791
tp5161
ag658
asg3285
(lp5162
(I1033
I234
tp5163
a(I1048
I274
tp5164
as(I1942
I873
tp5165
(lp5166
(I1943
I894
tp5167
a(I1943
I851
tp5168
as(I974
I707
tp5169
(lp5170
(I955
I697
tp5171
ag4537
as(I1417
I1939
tp5172
(lp5173
(I1422
I1945
tp5174
ag2879
a(I1434
I1933
tp5175
as(I321
I1281
tp5176
(lp5177
(I311
I1262
tp5178
ag2476
as(I112
I1806
tp5179
(lp5180
(I91
I1799
tp5181
a(I103
I1785
tp5182
ag2158
ag4571
a(I131
I1813
tp5183
as(I1097
I730
tp5184
(lp5185
(I1097
I744
tp5186
a(I1097
I716
tp5187
as(I653
I417
tp5188
(lp5189
(I632
I414
tp5190
ag3239
as(I140
I1870
tp5191
(lp5192
(I155
I1886
tp5193
ag2229
as(I1268
I1471
tp5194
(lp5195
(I1262
I1488
tp5196
a(I1271
I1453
tp5197
as(I605
I1613
tp5198
(lp5199
(I606
I1592
tp5200
a(I602
I1635
tp5201
asg2308
(lp5202
(I1048
I1479
tp5203
ag4891
as(I704
I1303
tp5204
(lp5205
(I693
I1289
tp5206
ag1080
as(I267
I840
tp5207
(lp5208
(I259
I819
tp5209
as(I415
I127
tp5210
(lp5211
(I415
I146
tp5212
ag2377
asg4047
(lp5213
(I374
I540
tp5214
ag1746
as(I1519
I346
tp5215
(lp5216
(I1532
I361
tp5217
a(I1503
I336
tp5218
asg4023
(lp5219
(I1823
I161
tp5220
a(I1865
I174
tp5221
asg2860
(lp5222
(I718
I64
tp5223
ag4328
as(I126
I1410
tp5224
(lp5225
(I112
I1396
tp5226
ag2060
as(I800
I1785
tp5227
(lp5228
(I791
I1806
tp5229
a(I811
I1767
tp5230
asg1284
(lp5231
(I235
I2007
tp5232
a(I233
I1995
tp5233
as(I389
I1778
tp5234
(lp5235
(I409
I1786
tp5236
a(I369
I1769
tp5237
as(I235
I224
tp5238
(lp5239
(I222
I208
tp5240
a(I251
I237
tp5241
asg4346
(lp5242
(I938
I1860
tp5243
ag3158
asg1202
(lp5244
(I1458
I192
tp5245
ag2137
as(I1770
I186
tp5246
(lp5247
(I1791
I184
tp5248
ag1955
asg5175
(lp5249
(I1417
I1939
tp5250
ag5112
asg2827
(lp5251
(I128
I1516
tp5252
a(I159
I1519
tp5253
a(I160
I1539
tp5254
as(I453
I202
tp5255
(lp5256
(I437
I189
tp5257
a(I439
I216
tp5258
ag2027
asg1041
(lp5259
g1039
a(I1045
I1787
tp5260
as(I352
I526
tp5261
(lp5262
(I372
I519
tp5263
a(I334
I514
tp5264
asg3895
(lp5265
(I970
I514
tp5266
ag5120
asg1855
(lp5267
(I60
I1898
tp5268
asg1428
(lp5269
(I518
I156
tp5270
ag678
as(I691
I310
tp5271
(lp5272
(I702
I329
tp5273
a(I685
I329
tp5274
a(I698
I291
tp5275
as(I37
I894
tp5276
(lp5277
(I44
I913
tp5278
as(I522
I1288
tp5279
(lp5280
(I538
I1304
tp5281
ag4765
asg4731
(lp5282
(I312
I1890
tp5283
a(I352
I1888
tp5284
asg5237
(lp5285
(I389
I1778
tp5286
ag4007
as(I67
I1133
tp5287
(lp5288
(I85
I1126
tp5289
ag3565
asg227
(lp5290
(I115
I1635
tp5291
a(I155
I1649
tp5292
as(I1762
I276
tp5293
(lp5294
(I1747
I263
tp5295
ag3576
asg2147
(lp5296
(I741
I170
tp5297
ag3883
asg4866
(lp5298
(I743
I400
tp5299
ag374
as(I1295
I1540
tp5300
(lp5301
(I1289
I1520
tp5302
a(I1301
I1560
tp5303
asg4772
(lp5304
(I475
I752
tp5305
ag2688
asg4311
(lp5306
(I273
I1211
tp5307
ag3272
as(I1982
I58
tp5308
(lp5309
(I1982
I36
tp5310
asg4228
(lp5311
g4226
a(I971
I1891
tp5312
as(I975
I1940
tp5313
(lp5314
(I982
I1929
tp5315
asg2209
(lp5316
(I446
I1451
tp5317
ag5123
as(I639
I185
tp5318
(lp5319
(I617
I185
tp5320
ag2872
asg3235
(lp5321
g3233
ag3772
as(I169
I1938
tp5322
(lp5323
(I150
I1945
tp5324
ag386
asg1523
(lp5325
g1521
ag1139
asg3432
(lp5326
(I235
I679
tp5327
ag402
as(I293
I1781
tp5328
(lp5329
(I313
I1786
tp5330
ag4220
asg2172
(lp5331
(I432
I493
tp5332
ag2351
asg3192
(lp5333
(I460
I1598
tp5334
ag4840
asg2522
(lp5335
(I1507
I839
tp5336
ag4058
asg5241
(lp5337
(I235
I224
tp5338
ag4319
asg2622
(lp5339
(I47
I596
tp5340
a(I41
I636
tp5341
asg1533
(lp5342
g1531
ag5138
as(I1747
I263
tp5343
(lp5344
(I1731
I252
tp5345
ag5293
asg4791
(lp5346
(I1002
I492
tp5347
a(I989
I505
tp5348
as(I1585
I555
tp5349
(lp5350
(I1587
I537
tp5351
a(I1587
I574
tp5352
as(I1754
I479
tp5353
(lp5354
(I1775
I472
tp5355
ag1596
asg3416
(lp5356
(I724
I230
tp5357
a(I765
I214
tp5358
asg4673
(lp5359
(I141
I500
tp5360
ag4527
as(I1321
I331
tp5361
(lp5362
(I1308
I315
tp5363
ag662
asg4241
(lp5364
(I329
I1751
tp5365
a(I289
I1731
tp5366
asg1008
(lp5367
(I847
I1797
tp5368
a(I889
I1788
tp5369
as(I538
I1304
tp5370
(lp5371
(I553
I1319
tp5372
ag5279
as(I1441
I534
tp5373
(lp5374
(I1448
I519
tp5375
ag434
asg756
(lp5376
(I948
I1218
tp5377
as(I1117
I1578
tp5378
(lp5379
(I1110
I1589
tp5380
a(I1121
I1572
tp5381
a(I1109
I1560
tp5382
asg3025
(lp5383
(I216
I343
tp5384
ag3129
asg1595
(lp5385
(I1805
I1806
tp5386
ag2768
asg3878
(lp5387
(I1471
I748
tp5388
ag1803
as(I1242
I1265
tp5389
(lp5390
(I1223
I1266
tp5391
ag4079
as(I1596
I793
tp5392
(lp5393
(I1596
I771
tp5394
ag4001
asg1047
(lp5395
(I880
I1906
tp5396
a(I837
I1899
tp5397
as(I590
I234
tp5398
(lp5399
(I571
I242
tp5400
a(I608
I227
tp5401
asg3517
(lp5402
(I726
I955
tp5403
ag1810
as(I1096
I43
tp5404
(lp5405
(I1108
I61
tp5406
as(I584
I287
tp5407
(lp5408
(I564
I296
tp5409
ag3176
asg5206
(lp5410
g5204
as(I1416
I594
tp5411
(lp5412
(I1410
I608
tp5413
ag410
asg2304
(lp5414
(I1813
I181
tp5415
ag4019
asg4713
(lp5416
(I423
I646
tp5417
a(I442
I676
tp5418
asg4654
(lp5419
(I130
I1928
tp5420
a(I169
I1949
tp5421
asg1777
(lp5422
(I1790
I540
tp5423
ag4895
asg4307
(lp5424
(I1300
I454
tp5425
a(I1298
I439
tp5426
a(I1258
I446
tp5427
asg2444
(lp5428
g2442
ag2711
ag2861
as(I1885
I183
tp5429
(lp5430
(I1865
I174
tp5431
a(I1904
I194
tp5432
asg1707
(lp5433
(I1519
I737
tp5434
a(I1557
I752
tp5435
asg3085
(lp5436
(I302
I350
tp5437
a(I345
I359
tp5438
asg3201
(lp5439
(I162
I999
tp5440
ag267
asg5310
(lp5441
g5308
as(I810
I444
tp5442
(lp5443
(I799
I463
tp5444
a(I820
I424
tp5445
asg2955
(lp5446
(I318
I800
tp5447
ag3541
as(I244
I624
tp5448
(lp5449
(I265
I622
tp5450
ag3230
asg4953
(lp5451
(I1632
I490
tp5452
ag4700
as(I1671
I269
tp5453
(lp5454
(I1689
I259
tp5455
ag137
asg4205
(lp5456
(I1907
I978
tp5457
ag3628
asg2176
(lp5458
(I87
I1575
tp5459
a(I73
I1548
tp5460
asg136
(lp5461
(I1136
I571
tp5462
ag1167
asg5435
(lp5463
(I1535
I749
tp5464
a(I1576
I744
tp5465
asg5052
(lp5466
(I887
I826
tp5467
ag2284
as(I713
I1816
tp5468
(lp5469
(I704
I1836
tp5470
ag3424
as(I216
I1760
tp5471
(lp5472
(I234
I1760
tp5473
ag4748
as(I1947
I1027
tp5474
(lp5475
(I1968
I1021
tp5476
a(I1928
I1016
tp5477
asg4969
(lp5478
(I451
I567
tp5479
a(I481
I597
tp5480
as(I247
I395
tp5481
(lp5482
(I229
I402
tp5483
a(I266
I392
tp5484
ag2343
as(I451
I1237
tp5485
(lp5486
(I472
I1245
tp5487
ag2178
asg546
(lp5488
(I1285
I1422
tp5489
asg5418
(lp5490
(I423
I669
tp5491
a(I464
I676
tp5492
asg37
(lp5493
g35
ag1715
ag4188
asg2630
(lp5494
(I302
I1538
tp5495
ag694
asg2814
(lp5496
(I1364
I493
tp5497
ag3739
asg31
(lp5498
(I101
I1898
tp5499
ag1852
asg792
(lp5500
(I1181
I1193
tp5501
a(I1218
I1183
tp5502
asg3446
(lp5503
(I1097
I1555
tp5504
a(I1098
I1595
tp5505
as(I1908
I622
tp5506
(lp5507
(I1886
I625
tp5508
a(I1929
I618
tp5509
asg3520
(lp5510
(I1245
I692
tp5511
ag4108
as(I492
I1693
tp5512
(lp5513
(I513
I1692
tp5514
a(I474
I1689
tp5515
ag3817
asg215
(lp5516
(I981
I1380
tp5517
asg3811
(lp5518
(I1096
I1696
tp5519
a(I1092
I1730
tp5520
ag3948
as(I211
I191
tp5521
(lp5522
(I196
I176
tp5523
a(I222
I208
tp5524
as(I1043
I1725
tp5525
(lp5526
(I1056
I1719
tp5527
asg4751
(lp5528
(I200
I1768
tp5529
a(I191
I1797
tp5530
a(I172
I1765
tp5531
a(I176
I1787
tp5532
as(I1036
I581
tp5533
(lp5534
(I1056
I580
tp5535
ag3507
asg93
(lp5536
(I1340
I725
tp5537
ag3061
as(I1085
I751
tp5538
(lp5539
(I1097
I744
tp5540
a(I1077
I764
tp5541
asg4106
(lp5542
g4104
ag1586
a(I206
I679
tp5543
asg5515
(lp5544
(I492
I1693
tp5545
ag4380
as(I1911
I857
tp5546
(lp5547
(I1899
I843
tp5548
ag2219
ag4294
asg3412
(lp5549
(I1606
I249
tp5550
ag4588
asg4256
(lp5551
(I1177
I695
tp5552
ag778
asg4468
(lp5553
(I1282
I1180
tp5554
asg4960
(lp5555
(I129
I1726
tp5556
a(I158
I1752
tp5557
asg1486
(lp5558
(I406
I1635
tp5559
ag1309
asg3882
(lp5560
(I117
I516
tp5561
a(I113
I486
tp5562
as(I1705
I390
tp5563
(lp5564
(I1723
I399
tp5565
a(I1699
I371
tp5566
asg3636
(lp5567
(I766
I552
tp5568
ag43
asg1685
(lp5569
(I1086
I1271
tp5570
a(I1107
I1291
tp5571
a(I1125
I1271
tp5572
ag4374
asg1502
(lp5573
(I1296
I299
tp5574
ag5361
asg4352
(lp5575
g4350
a(I1062
I1776
tp5576
asg1642
(lp5577
(I1985
I397
tp5578
ag2526
asg3289
(lp5579
(I1287
I222
tp5580
a(I1303
I185
tp5581
asg980
(lp5582
(I211
I400
tp5583
ag5481
asg4136
(lp5584
(I787
I482
tp5585
ag5442
asg3395
(lp5586
(I1614
I403
tp5587
ag82
as(I782
I1825
tp5588
(lp5589
(I773
I1845
tp5590
a(I791
I1806
tp5591
asg3207
(lp5592
(I328
I920
tp5593
a(I333
I958
tp5594
asg116
(lp5595
g114
ag3998
asg2587
(lp5596
(I1006
I1197
tp5597
ag4076
asg1238
(lp5598
(I419
I1211
tp5599
a(I430
I1168
tp5600
as(I968
I1795
tp5601
(lp5602
(I986
I1791
tp5603
a(I964
I1805
tp5604
a(I949
I1800
tp5605
asg300
(lp5606
g298
ag4950
ag4377
asg5059
(lp5607
(I52
I1298
tp5608
ag168
asg1067
(lp5609
(I708
I1436
tp5610
ag3369
asg2372
(lp5611
(I1980
I1670
tp5612
asg3003
(lp5613
(I377
I1079
tp5614
ag2771
asg2767
(lp5615
(I342
I1001
tp5616
a(I333
I958
tp5617
asg567
(lp5618
(I312
I307
tp5619
a(I286
I299
tp5620
a(I316
I281
tp5621
asg1094
(lp5622
(I1183
I1268
tp5623
a(I1223
I1266
tp5624
as(I1153
I1525
tp5625
(lp5626
(I1166
I1507
tp5627
ag813
asg398
(lp5628
(I1044
I1196
tp5629
asg325
(lp5630
g323
ag3189
ag4542
as(I65
I969
tp5631
(lp5632
(I57
I950
tp5633
ag2455
asg4680
(lp5634
(I98
I1885
tp5635
ag4970
asg2085
(lp5636
(I1615
I125
tp5637
ag1012
asg3530
(lp5638
(I1281
I1265
tp5639
asg2750
(lp5640
(I1238
I1517
tp5641
asg732
(lp5642
(I1396
I340
tp5643
ag4658
as(I1678
I1759
tp5644
(lp5645
(I1691
I1753
tp5646
ag493
asg5591
(lp5647
(I782
I1825
tp5648
ag5227
as(I1318
I1621
tp5649
(lp5650
(I1313
I1601
tp5651
ag5127
ag1951
asg1718
(lp5652
(I1378
I1827
tp5653
ag2436
as(I147
I1826
tp5654
(lp5655
(I131
I1813
tp5656
a(I158
I1837
tp5657
a(I151
I1807
tp5658
as(I1731
I252
tp5659
(lp5660
(I1749
I247
tp5661
ag5343
ag3103
as(I1167
I1808
tp5662
(lp5663
(I1159
I1803
tp5664
ag2610
asg4605
(lp5665
(I1554
I839
tp5666
a(I1556
I880
tp5667
as(I1579
I877
tp5668
(lp5669
(I1584
I856
tp5670
asg1755
(lp5671
(I258
I475
tp5672
ag1738
asg2789
(lp5673
(I1857
I748
tp5674
a(I1899
I749
tp5675
as(I1699
I513
tp5676
(lp5677
(I1717
I502
tp5678
a(I1714
I527
tp5679
a(I1683
I504
tp5680
asg5543
(lp5681
(I203
I659
tp5682
ag531
as(I1957
I1933
tp5683
(lp5684
(I1950
I1912
tp5685
a(I1960
I1954
tp5686
asg1845
(lp5687
(I288
I1948
tp5688
a(I319
I1969
tp5689
asg3175
(lp5690
(I994
I1436
tp5691
a(I950
I1436
tp5692
asg2328
(lp5693
(I1551
I582
tp5694
ag2568
asg5509
(lp5695
(I1908
I622
tp5696
ag1542
as(I414
I46
tp5697
(lp5698
(I414
I66
tp5699
asg4689
(lp5700
(I1463
I887
tp5701
ag442
as(I243
I1390
tp5702
(lp5703
(I248
I1370
tp5704
ag1273
asg4526
(lp5705
(I66
I1911
tp5706
ag5130
asg2675
(lp5707
(I1870
I847
tp5708
ag568
as(I1344
I1282
tp5709
(lp5710
(I1345
I1302
tp5711
a(I1343
I1262
tp5712
as(I91
I1398
tp5713
(lp5714
(I75
I1386
tp5715
a(I112
I1396
tp5716
asg3917
(lp5717
(I569
I1335
tp5718
ag5370
asg1483
(lp5719
(I1343
I1204
tp5720
ag4171
asg3997
(lp5721
(I106
I1077
tp5722
ag2422
as(I409
I1733
tp5723
(lp5724
(I427
I1726
tp5725
a(I393
I1741
tp5726
asg2026
(lp5727
(I433
I1819
tp5728
ag2123
asg4148
(lp5729
(I1764
I525
tp5730
ag1774
asg2276
(lp5731
(I1649
I177
tp5732
a(I1629
I139
tp5733
asg3662
(lp5734
(I980
I1856
tp5735
ag4343
asg797
(lp5736
(I218
I1893
tp5737
a(I246
I1916
tp5738
as(I1386
I960
tp5739
(lp5740
(I1397
I942
tp5741
ag2577
asg2548
(lp5742
(I1350
I1397
tp5743
ag5075
asg1711
(lp5744
(I839
I868
tp5745
a(I875
I845
tp5746
asg2454
(lp5747
(I233
I885
tp5748
a(I205
I896
tp5749
as(I1655
I613
tp5750
(lp5751
(I1634
I613
tp5752
ag869
asg1614
(lp5753
(I1362
I1340
tp5754
asg3964
(lp5755
(I282
I1978
tp5756
ag1966
as(I98
I264
tp5757
(lp5758
(I87
I246
tp5759
a(I115
I278
tp5760
asg3673
(lp5761
(I1541
I378
tp5762
ag5215
as(I1331
I1262
tp5763
(lp5764
(I1343
I1262
tp5765
ag1978
asg2092
(lp5766
(I1447
I106
tp5767
a(I1439
I63
tp5768
as(I442
I958
tp5769
(lp5770
(I420
I958
tp5771
as(I917
I683
tp5772
(lp5773
(I898
I688
tp5774
ag1970
asg2248
(lp5775
(I168
I130
tp5776
ag2801
as(I1805
I1823
tp5777
(lp5778
(I1825
I1824
tp5779
ag1592
as(I1785
I822
tp5780
(lp5781
(I1802
I836
tp5782
a(I1768
I808
tp5783
asg4984
(lp5784
(I1767
I243
tp5785
ag5659
asg5600
(lp5786
(I424
I1189
tp5787
ag824
asg1681
(lp5788
(I1066
I1898
tp5789
a(I1032
I1926
tp5790
asg2942
(lp5791
(I1258
I1950
tp5792
a(I1278
I1987
tp5793
asg2354
(lp5794
(I476
I495
tp5795
ag1336
asg5183
(lp5796
(I112
I1806
tp5797
ag5654
asg4947
(lp5798
(I926
I778
tp5799
ag2993
as(I100
I663
tp5800
(lp5801
(I119
I655
tp5802
ag1068
asg2590
(lp5803
(I1676
I564
tp5804
ag1147
asg4719
(lp5805
(I964
I80
tp5806
a(I1001
I102
tp5807
asg1210
(lp5808
(I637
I370
tp5809
a(I678
I367
tp5810
asg1395
(lp5811
(I1766
I395
tp5812
a(I1723
I399
tp5813
asg1112
(lp5814
(I1465
I685
tp5815
ag1432
asg1821
(lp5816
(I754
I1968
tp5817
ag1883
asg773
(lp5818
(I212
I1928
tp5819
ag4116
asg2594
(lp5820
(I1098
I1595
tp5821
ag5378
asg633
(lp5822
(I1261
I243
tp5823
a(I1233
I249
tp5824
a(I1270
I231
tp5825
asg5480
(lp5826
(I465
I583
tp5827
ag3510
as(I1691
I1753
tp5828
(lp5829
(I1711
I1754
tp5830
ag5644
asg1071
(lp5831
(I82
I675
tp5832
a(I56
I708
tp5833
asg1264
(lp5834
g1262
ag3548
ag5757
as(I352
I1872
tp5835
(lp5836
(I351
I1856
tp5837
a(I352
I1888
tp5838
asg3033
(lp5839
(I184
I1483
tp5840
ag2252
asg1534
(lp5841
(I1424
I1952
tp5842
ag86
asg2496
(lp5843
(I53
I1743
tp5844
ag1913
as(I1892
I704
tp5845
(lp5846
(I1905
I718
tp5847
a(I1896
I694
tp5848
asg4128
(lp5849
(I295
I739
tp5850
ag4354
asg2033
(lp5851
(I147
I1054
tp5852
ag698
as(I50
I292
tp5853
(lp5854
(I68
I289
tp5855
asg1370
(lp5856
(I1107
I1516
tp5857
ag3443
asg54
(lp5858
(I1166
I1347
tp5859
a(I1128
I1349
tp5860
as(I685
I329
tp5861
(lp5862
(I685
I349
tp5863
a(I691
I310
tp5864
asg2584
(lp5865
(I1856
I557
tp5866
ag2692
asg5667
(lp5867
(I1556
I859
tp5868
ag5104
as(I1299
I1874
tp5869
(lp5870
(I1303
I1854
tp5871
a(I1305
I1893
tp5872
asg1473
(lp5873
(I143
I459
tp5874
ag4670
asg4996
(lp5875
(I218
I1979
tp5876
ag3912
as(I92
I1968
tp5877
(lp5878
(I73
I1978
tp5879
ag2194
asg3796
(lp5880
(I799
I852
tp5881
ag4062
asg3651
(lp5882
(I1524
I1942
tp5883
a(I1489
I1959
tp5884
asg5848
(lp5885
(I1892
I704
tp5886
ag4176
asg4966
(lp5887
(I178
I489
tp5888
a(I174
I524
tp5889
asg3438
(lp5890
(I704
I1567
tp5891
a(I697
I1610
tp5892
asg4764
(lp5893
(I546
I796
tp5894
a(I577
I768
tp5895
asg4601
(lp5896
(I286
I1622
tp5897
ag901
asg1733
(lp5898
(I1404
I1872
tp5899
ag3142
asg5144
(lp5900
(I216
I571
tp5901
ag3677
asg3799
(lp5902
g3797
ag1371
as(I243
I1349
tp5903
(lp5904
(I225
I1337
tp5905
a(I248
I1370
tp5906
asg2296
(lp5907
(I1810
I1910
tp5908
ag1650
asg3309
(lp5909
(I199
I899
tp5910
asg254
(lp5911
(I547
I309
tp5912
ag5407
asg1142
(lp5913
(I435
I371
tp5914
ag2009
asg823
(lp5915
(I1958
I233
tp5916
ag1438
asg4371
(lp5917
(I493
I1809
tp5918
ag3362
asg4710
(lp5919
(I1346
I1321
tp5920
ag5709
as(I1899
I843
tp5921
(lp5922
(I1885
I832
tp5923
ag5546
as(I48
I1801
tp5924
(lp5925
(I46
I1816
tp5926
ag2313
asg2739
(lp5927
(I1278
I1502
tp5928
ag5300
asg5768
(lp5929
(I1443
I85
tp5930
ag4027
asg5783
(lp5931
(I1785
I822
tp5932
ag4191
asg2203
(lp5933
(I366
I836
tp5934
a(I367
I878
tp5935
asg4723
(lp5936
(I1724
I130
tp5937
a(I1709
I90
tp5938
asg2193
(lp5939
(I125
I695
tp5940
ag2078
asg371
(lp5941
g369
ag5713
asg2475
(lp5942
(I170
I1902
tp5943
ag5191
asg4065
(lp5944
(I819
I814
tp5945
ag2832
asg5358
(lp5946
(I744
I222
tp5947
ag102
ag1178
ag2000
asg3172
(lp5948
(I1397
I409
tp5949
a(I1384
I428
tp5950
a(I1369
I393
tp5951
as(I1505
I1799
tp5952
(lp5953
(I1503
I1820
tp5954
ag153
asg2115
(lp5955
(I272
I1891
tp5956
a(I271
I1849
tp5957
asg5366
(lp5958
(I309
I1741
tp5959
ag690
asg235
(lp5960
(I490
I1257
tp5961
ag5485
asg5341
(lp5962
(I44
I617
tp5963
asg2831
(lp5964
(I815
I1897
tp5965
a(I774
I1886
tp5966
asg4846
(lp5967
(I378
I500
tp5968
ag5261
ag4044
asg4940
(lp5969
(I1589
I835
tp5970
ag5668
asg3169
(lp5971
(I413
I583
tp5972
a(I379
I606
tp5973
as(I384
I887
tp5974
(lp5975
(I367
I878
tp5976
ag2676
asg3081
(lp5977
g3079
ag5662
ag1768
asg5201
(lp5978
(I605
I1613
tp5979
ag4504
asg241
(lp5980
g239
a(I1103
I1734
tp5981
ag3342
asg461
(lp5982
g459
ag5062
as(I1401
I315
tp5983
(lp5984
(I1413
I331
tp5985
ag2742
asg2458
(lp5986
(I73
I988
tp5987
a(I88
I1027
tp5988
asg4973
(lp5989
(I141
I1892
tp5990
a(I170
I1895
tp5991
a(I143
I1897
tp5992
asg4619
(lp5993
(I596
I370
tp5994
ag1207
asg2074
(lp5995
(I728
I1647
tp5996
a(I692
I1632
tp5997
asg4458
(lp5998
(I295
I1663
tp5999
ag4598
as(I324
I395
tp6000
(lp6001
(I305
I393
tp6002
ag803
asg3066
(lp6003
(I1924
I446
tp6004
ag4901
asg3726
(lp6005
(I203
I1335
tp6006
ag5903
asg1494
(lp6007
(I110
I1987
tp6008
a(I136
I1986
tp6009
ag5020
asg5950
(lp6010
(I1378
I409
tp6011
a(I1387
I448
tp6012
asg1599
(lp6013
(I1736
I491
tp6014
ag5676
asg124
(lp6015
(I442
I256
tp6016
ag5003
asg5906
(lp6017
(I243
I1349
tp6018
ag5702
asg4977
(lp6019
(I398
I958
tp6020
ag406
asg2936
(lp6021
(I1111
I1391
tp6022
a(I1109
I1353
tp6023
asg5951
(lp6024
(I1378
I409
tp6025
ag865
asg629
(lp6026
(I1115
I1476
tp6027
ag1367
as(I486
I676
tp6028
(lp6029
(I464
I676
tp6030
a(I500
I690
tp6031
asg4669
(lp6032
(I1366
I242
tp6033
ag3333
as(I916
I53
tp6034
(lp6035
(I927
I67
tp6036
a(I915
I51
tp6037
a(I919
I65
tp6038
asg1882
(lp6039
(I799
I166
tp6040
a(I820
I132
tp6041
as(I1349
I531
tp6042
(lp6043
(I1337
I550
tp6044
ag4655
as(I101
I2009
tp6045
(lp6046
(I104
I1988
tp6047
as(I1939
I130
tp6048
(lp6049
(I1958
I141
tp6050
ag2685
asg1802
(lp6051
(I208
I1446
tp6052
ag3030
asg1664
(lp6053
(I554
I1750
tp6054
a(I526
I1783
tp6055
asg4091
(lp6056
(I1911
I796
tp6057
ag4183
asg1343
(lp6058
(I1271
I1376
tp6059
a(I1269
I1342
tp6060
asg394
(lp6061
(I416
I187
tp6062
ag5255
asg4119
(lp6063
(I186
I1893
tp6064
a(I160
I1859
tp6065
as(I1918
I997
tp6066
(lp6067
(I1928
I1016
tp6068
ag4202
asg2551
(lp6069
(I906
I82
tp6070
a(I921
I76
tp6071
asg3271
(lp6072
g3269
ag948
ag5037
as(I1358
I1963
tp6073
(lp6074
(I1377
I1953
tp6075
a(I1338
I1975
tp6076
as(I591
I1698
tp6077
(lp6078
(I595
I1677
tp6079
ag1220
as(I185
I1918
tp6080
(lp6081
(I201
I1934
tp6082
ag2472
asg2963
(lp6083
(I48
I329
tp6084
ag1305
as(I985
I1274
tp6085
(lp6086
(I1006
I1273
tp6087
ag3439
as(I182
I612
tp6088
(lp6089
(I173
I629
tp6090
a(I197
I601
tp6091
asg3275
(lp6092
(I299
I1246
tp6093
ag5176
asg1791
(lp6094
(I395
I1356
tp6095
ag3711
asg4507
(lp6096
(I599
I1656
tp6097
ag6077
asg1582
(lp6098
(I373
I1740
tp6099
ag141
as(I318
I498
tp6100
(lp6101
(I334
I514
tp6102
ag3211
asg2785
(lp6103
(I252
I990
tp6104
a(I242
I969
tp6105
a(I252
I948
tp6106
asg5369
(lp6107
(I868
I1792
tp6108
ag1258
as(I1943
I851
tp6109
(lp6110
(I1953
I834
tp6111
a(I1928
I859
tp6112
a(I1942
I873
tp6113
asg4944
(lp6114
(I946
I1373
tp6115
ag4281
asg4157
(lp6116
(I1716
I936
tp6117
a(I1728
I897
tp6118
asg6091
(lp6119
(I182
I612
tp6120
ag1477
asg685
(lp6121
(I1942
I323
tp6122
ag2237
asg673
(lp6123
g671
a(I1711
I1754
tp6124
as(I948
I1415
tp6125
(lp6126
(I950
I1436
tp6127
a(I947
I1394
tp6128
asg4284
(lp6129
(I913
I1362
tp6130
a(I876
I1346
tp6131
as(I1288
I625
tp6132
(lp6133
(I1300
I625
tp6134
ag1673
asg4790
(lp6135
g4788
a(I1007
I510
tp6136
ag3892
as(I1011
I1854
tp6137
(lp6138
(I998
I1866
tp6139
ag1363
asg2684
(lp6140
(I66
I432
tp6141
a(I72
I392
tp6142
asg2835
(lp6143
(I806
I773
tp6144
ag3010
asg6128
(lp6145
(I948
I1415
tp6146
ag4941
as(I868
I1328
tp6147
(lp6148
(I876
I1346
tp6149
ag4232
asg289
(lp6150
(I909
I535
tp6151
ag3376
asg5056
(lp6152
(I816
I1689
tp6153
ag4815
as(I686
I1877
tp6154
(lp6155
(I682
I1898
tp6156
ag3983
as(I363
I815
tp6157
(lp6158
(I360
I793
tp6159
ag2200
asg421
(lp6160
(I271
I1148
tp6161
ag4794
asg915
(lp6162
(I130
I1952
tp6163
ag5322
asg4142
(lp6164
g4140
ag4445
asg3597
(lp6165
(I204
I1976
tp6166
ag1281
asg2050
(lp6167
(I959
I1951
tp6168
a(I997
I1952
tp6169
asg4195
(lp6170
(I1751
I795
tp6171
a(I1749
I755
tp6172
as(I1844
I328
tp6173
(lp6174
(I1826
I317
tp6175
a(I1860
I341
tp6176
asg6031
(lp6177
(I486
I676
tp6178
a(I506
I711
tp6179
asg697
(lp6180
(I303
I1494
tp6181
as(I201
I1934
tp6182
(lp6183
(I216
I1950
tp6184
ag6080
asg1999
(lp6185
(I1822
I845
tp6186
ag5780
asg4666
(lp6187
(I1109
I1353
tp6188
ag4462
asg2177
(lp6189
(I87
I1575
tp6190
a(I118
I1591
tp6191
asg2488
(lp6192
(I552
I228
tp6193
a(I553
I186
tp6194
asg4622
(lp6195
(I1278
I263
tp6196
a(I1287
I222
tp6197
as(I1410
I608
tp6198
(lp6199
(I1432
I608
tp6200
ag1974
ag5411
asg4932
(lp6201
(I1354
I1041
tp6202
a(I1321
I1064
tp6203
as(I271
I1129
tp6204
(lp6205
(I270
I1110
tp6206
ag417
as(I1825
I1824
tp6207
(lp6208
(I1841
I1836
tp6209
ag5777
asg5264
(lp6210
(I352
I526
tp6211
ag6100
asg2387
(lp6212
(I272
I913
tp6213
ag3727
as(I1863
I834
tp6214
(lp6215
(I1885
I832
tp6216
ag3784
asg5484
(lp6217
(I247
I395
tp6218
ag2847
asg5164
(lp6219
(I1044
I253
tp6220
ag4137
asg3905
(lp6221
(I416
I167
tp6222
ag5210
asg838
(lp6223
(I677
I1914
tp6224
a(I686
I1919
tp6225
ag6154
as(I271
I1827
tp6226
(lp6227
(I271
I1849
tp6228
ag5000
asg1130
(lp6229
(I1027
I1272
tp6230
ag6085
asg1469
(lp6231
(I1962
I1900
tp6232
ag2726
asg5465
(lp6233
(I1557
I752
tp6234
ag3936
asg3551
(lp6235
(I79
I227
tp6236
a(I45
I207
tp6237
asg5514
(lp6238
g5512
ag3261
asg5100
(lp6239
(I1900
I390
tp6240
ag2016
asg5749
(lp6241
(I219
I890
tp6242
ag4384
ag3306
a(I198
I875
tp6243
asg3792
(lp6244
(I505
I741
tp6245
a(I506
I711
tp6246
asg3958
(lp6247
(I1492
I1837
tp6248
ag5952
asg1000
(lp6249
(I1807
I309
tp6250
ag6173
asg4843
(lp6251
(I458
I1558
tp6252
ag3019
asg160
(lp6253
(I694
I429
tp6254
ag4836
asg6076
(lp6255
(I1358
I1963
tp6256
ag1323
asg3631
(lp6257
(I1879
I945
tp6258
ag1453
asg322
(lp6259
(I1614
I606
tp6260
ag5750
asg6041
(lp6261
(I809
I149
tp6262
ag3495
asg579
(lp6263
(I1511
I518
tp6264
a(I1469
I524
tp6265
asg3382
(lp6266
g3380
asg2399
(lp6267
(I1699
I1910
tp6268
ag4926
asg3939
(lp6269
(I1594
I750
tp6270
ag5392
asg3202
(lp6271
(I162
I999
tp6272
ag481
asg4359
(lp6273
(I1434
I1620
tp6274
ag897
asg1250
(lp6275
(I414
I1975
tp6276
ag1553
as(I1300
I603
tp6277
(lp6278
(I1300
I625
tp6279
ag774
asg1556
(lp6280
(I374
I1977
tp6281
a(I355
I1999
tp6282
a(I336
I1975
tp6283
ag3186
asg6176
(lp6284
(I1844
I328
tp6285
ag2317
asg4699
(lp6286
(I938
I1690
tp6287
asg1736
(lp6288
g1734
asg4455
(lp6289
(I1931
I884
tp6290
a(I1958
I908
tp6291
ag5165
as(I1836
I750
tp6292
(lp6293
(I1818
I739
tp6294
ag2786
asg1448
(lp6295
(I716
I345
tp6296
ag5271
asg3268
(lp6297
(I422
I1673
tp6298
a(I386
I1696
tp6299
asg5733
(lp6300
(I1639
I158
tp6301
ag2082
asg3148
(lp6302
(I219
I1907
tp6303
ag1419
asg3179
(lp6304
(I604
I278
tp6305
a(I644
I262
tp6306
asg3865
(lp6307
(I703
I188
tp6308
ag2144
as(I176
I1649
tp6309
(lp6310
(I155
I1649
tp6311
ag2256
asg175
(lp6312
(I282
I613
tp6313
ag5448
asg5152
(lp6314
(I85
I295
tp6315
ag5853
as(I1968
I1021
tp6316
(lp6317
(I1988
I1013
tp6318
ag5474
asg802
(lp6319
(I1870
I456
tp6320
ag4024
asg1038
(lp6321
(I1209
I1890
tp6322
a(I1188
I1928
tp6323
asg3252
(lp6324
(I1494
I201
tp6325
ag3674
asg152
(lp6326
(I835
I1999
tp6327
a(I795
I1983
tp6328
asg6169
(lp6329
(I978
I1958
tp6330
a(I1014
I1939
tp6331
asg621
(lp6332
(I254
I1767
tp6333
a(I250
I1773
tp6334
ag5471
asg433
(lp6335
(I180
I1533
tp6336
a(I142
I1532
tp6337
asg4919
(lp6338
(I1869
I1863
tp6339
a(I1841
I1836
tp6340
asg5892
(lp6341
(I701
I1588
tp6342
a(I692
I1632
tp6343
asg4608
(lp6344
(I1092
I1430
tp6345
ag2418
as(I1920
I751
tp6346
(lp6347
(I1899
I749
tp6348
a(I1932
I760
tp6349
ag1959
as(I1054
I357
tp6350
(lp6351
(I1033
I348
tp6352
a(I1075
I361
tp6353
asg2774
(lp6354
(I351
I1044
tp6355
ag2764
asg4647
(lp6356
(I116
I334
tp6357
ag2126
asg1660
(lp6358
(I458
I1661
tp6359
ag3857
asg1304
(lp6360
(I1127
I249
tp6361
ag1719
asg2361
(lp6362
g2359
ag6316
asg5807
(lp6363
(I983
I90
tp6364
ag4997
as(I270
I1110
tp6365
(lp6366
(I268
I1091
tp6367
ag6204
as(I346
I878
tp6368
(lp6369
(I367
I878
tp6370
ag4630
asg5027
(lp6371
(I684
I246
tp6372
ag3413
asg2797
(lp6373
(I67
I1813
tp6374
ag5924
asg2645
(lp6375
(I1185
I1307
tp6376
ag1091
asg309
(lp6377
(I1319
I2000
tp6378
a(I1319
I1985
tp6379
as(I262
I1523
tp6380
(lp6381
(I266
I1542
tp6382
ag3591
as(I1262
I1488
tp6383
(lp6384
(I1242
I1480
tp6385
ag2736
ag5194
asg896
(lp6386
(I189
I1895
tp6387
a(I189
I1882
tp6388
ag4755
asg5218
(lp6389
(I1519
I346
tp6390
ag66
asg2380
(lp6391
(I414
I106
tp6392
a(I414
I66
tp6393
asg5973
(lp6394
(I398
I599
tp6395
ag3095
asg3826
(lp6396
(I85
I856
tp6397
a(I110
I867
tp6398
a(I96
I829
tp6399
asg5230
(lp6400
(I800
I1785
tp6401
ag782
asg1645
(lp6402
g1643
ag5835
asg2332
(lp6403
(I247
I1952
tp6404
ag3961
asg318
(lp6405
(I688
I496
tp6406
ag1029
as(I968
I1814
tp6407
(lp6408
(I984
I1811
tp6409
a(I964
I1805
tp6410
ag3609
asg6393
(lp6411
(I414
I86
tp6412
ag5697
asg496
(lp6413
(I1679
I1779
tp6414
ag2652
as(I1359
I715
tp6415
(lp6416
(I1376
I702
tp6417
ag90
as(I1899
I1761
tp6418
(lp6419
(I1903
I1782
tp6420
ag4332
asg3738
(lp6421
(I767
I1866
tp6422
ag5588
as(I122
I1898
tp6423
(lp6424
(I143
I1897
tp6425
ag28
asg5289
(lp6426
g5287
asg1075
(lp6427
(I808
I679
tp6428
ag1867
as(I992
I1921
tp6429
(lp6430
(I982
I1929
tp6431
ag3383
ag2956
asg3655
(lp6432
(I273
I1710
tp6433
a(I250
I1682
tp6434
asg967
(lp6435
g965
ag702
as(I617
I185
tp6436
(lp6437
(I596
I186
tp6438
ag5318
asg6131
(lp6439
(I893
I1357
tp6440
ag6147
asg1809
(lp6441
(I685
I1655
tp6442
ag666
as(I1173
I1945
tp6443
(lp6444
(I1188
I1928
tp6445
ag1688
asg2157
(lp6446
(I123
I1452
tp6447
ag110
asg2439
(lp6448
(I1366
I1788
tp6449
a(I1354
I1749
tp6450
asg4015
(lp6451
(I1319
I625
tp6452
ag6277
ag6132
asg1973
(lp6453
(I937
I689
tp6454
ag5169
as(I2010
I1989
tp6455
(lp6456
(I2006
I1969
tp6457
asg752
(lp6458
(I1457
I499
tp6459
a(I1469
I524
tp6460
a(I1430
I511
tp6461
ag5373
asg5813
(lp6462
(I1745
I397
tp6463
ag5563
asg1988
(lp6464
(I1302
I408
tp6465
ag4859
asg1280
(lp6466
(I391
I306
tp6467
ag98
asg5008
(lp6468
(I1970
I822
tp6469
ag6109
as(I139
I1959
tp6470
(lp6471
(I118
I1966
tp6472
ag3827
asg469
(lp6473
(I1909
I1804
tp6474
ag6418
asg3702
(lp6475
(I156
I1985
tp6476
a(I116
I1987
tp6477
asg661
(lp6478
(I1025
I1783
tp6479
a(I1049
I1778
tp6480
a(I1047
I1788
tp6481
as(I511
I1797
tp6482
(lp6483
(I526
I1783
tp6484
ag4368
asg5312
(lp6485
(I958
I1902
tp6486
ag4163
asg6349
(lp6487
(I1920
I751
tp6488
a(I1945
I768
tp6489
asg940
(lp6490
(I624
I495
tp6491
ag522
asg4913
(lp6492
(I1181
I1492
tp6493
ag5625
asg3845
(lp6494
(I943
I75
tp6495
ag6034
asg4417
(lp6496
(I902
I709
tp6497
ag5772
as(I97
I1849
tp6498
(lp6499
(I112
I1866
tp6500
ag2130
asg1763
(lp6501
(I1161
I346
tp6502
ag3820
asg2316
(lp6503
(I70
I1798
tp6504
ag5179
asg5793
(lp6505
(I1267
I1969
tp6506
a(I1292
I2001
tp6507
asg3078
(lp6508
(I1109
I762
tp6509
ag5184
ag5538
asg5134
(lp6510
(I724
I969
tp6511
ag3513
asg5438
(lp6512
(I324
I355
tp6513
ag969
asg1548
(lp6514
(I1740
I749
tp6515
a(I1749
I713
tp6516
a(I1749
I755
tp6517
as(I1406
I1490
tp6518
(lp6519
(I1423
I1490
tp6520
ag2946
asg4326
(lp6521
g4324
ag4990
asg587
(lp6522
(I1519
I604
tp6523
ag555
asg4540
(lp6524
(I994
I714
tp6525
a(I1032
I697
tp6526
asg1912
(lp6527
g1910
ag2392
asg2890
(lp6528
(I1545
I273
tp6529
ag4546
asg2421
(lp6530
(I1051
I1429
tp6531
ag3073
asg4879
(lp6532
(I430
I1794
tp6533
ag5234
asg3748
(lp6534
(I1865
I617
tp6535
ag5506
as(I1414
I1581
tp6536
(lp6537
(I1399
I1565
tp6538
ag3253
asg2114
(lp6539
(I272
I1891
tp6540
ag327
asg5103
(lp6541
(I1572
I1741
tp6542
ag3731
asg2691
(lp6543
(I506
I782
tp6544
ag4761
asg3161
(lp6545
(I896
I1865
tp6546
ag2538
as(I1982
I707
tp6547
(lp6548
(I1967
I708
tp6549
asg1926
(lp6550
(I552
I249
tp6551
ag5398
asg2003
(lp6552
(I778
I200
tp6553
ag1879
as(I281
I549
tp6554
(lp6555
(I292
I540
tp6556
ag3666
asg2731
(lp6557
(I819
I71
tp6558
asg4383
(lp6559
(I456
I1686
tp6560
ag3265
as(I58
I729
tp6561
(lp6562
(I56
I708
tp6563
ag3117
asg2793
(lp6564
(I1126
I74
tp6565
ag5404
asg2606
(lp6566
(I164
I798
tp6567
ag3048
asg1154
(lp6568
(I1217
I432
tp6569
ag3600
asg4717
(lp6570
(I1555
I324
tp6571
ag1989
asg5871
(lp6572
g5869
asg3579
(lp6573
(I1769
I296
tp6574
ag997
as(I685
I349
tp6575
(lp6576
(I678
I367
tp6577
ag5861
asg3305
(lp6578
(I892
I1816
tp6579
a(I853
I1829
tp6580
asg959
(lp6581
(I1301
I1073
tp6582
ag4551
as(I221
I1084
tp6583
(lp6584
(I237
I1077
tp6585
ag765
asg3057
(lp6586
(I1467
I422
tp6587
ag858
asg5432
(lp6588
(I1885
I183
tp6589
ag2373
asg5988
(lp6590
(I80
I1007
tp6591
a(I69
I1034
tp6592
a(I107
I1020
tp6593
a(I94
I1044
tp6594
asg594
(lp6595
(I262
I175
tp6596
ag2215
asg5860
(lp6597
(I1147
I1349
tp6598
ag4662
asg2840
(lp6599
(I1475
I438
tp6600
ag55
asg3442
(lp6601
(I963
I1274
tp6602
ag362
asg5686
(lp6603
(I1957
I1933
tp6604
ag4249
asg1261
(lp6605
(I907
I1778
tp6606
a(I916
I1750
tp6607
asg850
(lp6608
(I996
I1801
tp6609
ag6407
asg183
(lp6610
(I192
I1994
tp6611
ag3699
asg5401
(lp6612
(I590
I234
tp6613
ag3402
asg4929
(lp6614
(I1743
I1912
tp6615
ag713
asg2714
(lp6616
(I608
I1570
tp6617
ag5198
asg6299
(lp6618
(I404
I1684
tp6619
ag2134
as(I51
I1041
tp6620
(lp6621
(I69
I1034
tp6622
as(I1033
I348
tp6623
(lp6624
(I1021
I331
tp6625
ag6350
asg3768
(lp6626
(I286
I1962
tp6627
ag331
asg4100
(lp6628
(I1662
I237
tp6629
a(I1658
I195
tp6630
asg5187
(lp6631
(I1097
I730
tp6632
asg6520
(lp6633
g6518
asg6194
(lp6634
(I551
I207
tp6635
ag4040
asg1606
(lp6636
(I124
I904
tp6637
ag5028
asg4103
(lp6638
(I1825
I895
tp6639
ag477
as(I51
I932
tp6640
(lp6641
(I44
I913
tp6642
a(I57
I950
tp6643
asg2429
(lp6644
(I1526
I815
tp6645
ag3930
asg5895
(lp6646
(I560
I780
tp6647
ag4555
ag3781
asg4736
(lp6648
(I744
I1710
tp6649
ag161
asg2903
(lp6650
(I1609
I327
tp6651
ag4648
a(I1575
I318
tp6652
asg6607
(lp6653
(I924
I1769
tp6654
ag106
asg5119
(lp6655
(I357
I772
tp6656
ag6157
asg4855
(lp6657
(I915
I49
tp6658
a(I916
I53
tp6659
asg3110
(lp6660
(I1897
I277
tp6661
ag1113
asg465
(lp6662
(I1999
I1949
tp6663
ag6455
asg3856
(lp6664
(I1384
I1551
tp6665
ag6536
asg4591
(lp6666
(I1613
I207
tp6667
ag3349
asg5716
(lp6668
(I91
I1398
tp6669
ag5224
asg5790
(lp6670
(I1049
I1912
tp6671
a(I1014
I1939
tp6672
asg3341
(lp6673
(I439
I236
tp6674
a(I453
I202
tp6675
asg5675
(lp6676
(I1878
I748
tp6677
ag6346
asg2088
(lp6678
(I1653
I741
tp6679
ag294
asg2541
(lp6680
(I868
I1839
tp6681
ag3696
asg6191
(lp6682
(I104
I1579
tp6683
a(I137
I1598
tp6684
asg65
(lp6685
(I1819
I950
tp6686
ag1487
asg1603
(lp6687
(I63
I496
tp6688
ag3645
asg3132
(lp6689
(I259
I346
tp6690
ag3082
asg6179
(lp6691
(I500
I690
tp6692
a(I525
I718
tp6693
a(I494
I726
tp6694
asg4465
(lp6695
(I1108
I1312
tp6696
a(I1106
I1271
tp6697
asg6172
(lp6698
(I1750
I775
tp6699
a(I1749
I735
tp6700
asg2609
(lp6701
(I54
I1987
tp6702
ag5877
asg4478
(lp6703
(I1401
I484
tp6704
ag2707
asg1195
(lp6705
(I425
I1612
tp6706
ag3537
asg4248
(lp6707
(I1224
I113
tp6708
ag982
asg2184
(lp6709
(I1303
I165
tp6710
ag4592
asg282
(lp6711
(I266
I1564
tp6712
ag6380
as(I190
I855
tp6713
(lp6714
(I198
I875
tp6715
ag3489
asg6216
(lp6716
g6214
ag2672
ag5921
ag4692
asg2977
(lp6717
(I1445
I1992
tp6718
asg6450
(lp6719
(I1360
I1769
tp6720
ag1832
asg3705
(lp6721
(I312
I1727
tp6722
ag3652
asg5935
(lp6723
(I369
I857
tp6724
ag3298
ag6368
ag5974
asg2602
(lp6725
(I252
I428
tp6726
asg553
(lp6727
g551
a(I1509
I1959
tp6728
ag4867
as(I2008
I676
tp6729
(lp6730
(I1994
I659
tp6731
asg458
(lp6732
(I1221
I1478
tp6733
ag6383
asg5292
(lp6734
(I135
I1644
tp6735
ag6309
asg3756
(lp6736
(I1226
I536
tp6737
ag4208
asg701
(lp6738
(I165
I1088
tp6739
a(I204
I1086
tp6740
asg2882
(lp6741
(I1397
I1942
tp6742
ag6073
asg585
(lp6743
g583
ag2325
asg2133
(lp6744
(I82
I1833
tp6745
ag1174
asg4252
(lp6746
(I1959
I1975
tp6747
asg4095
(lp6748
(I1594
I520
tp6749
ag5349
asg3014
(lp6750
(I833
I740
tp6751
ag4054
asg4828
(lp6752
(I1186
I545
tp6753
ag3753
asg6410
(lp6754
(I968
I1814
tp6755
a(I968
I1795
tp6756
asg6526
(lp6757
(I1014
I707
tp6758
asg2265
(lp6759
(I310
I552
tp6760
ag6554
asg1535
(lp6761
(I1424
I1952
tp6762
ag5172
as(I392
I1888
tp6763
(lp6764
(I411
I1889
tp6765
ag474
asg2804
(lp6766
(I180
I165
tp6767
a(I218
I176
tp6768
ag5521
asg1575
(lp6769
(I1825
I412
tp6770
ag2093
asg4407
(lp6771
(I1173
I767
tp6772
ag1196
asg6237
(lp6773
(I65
I212
tp6774
asg3123
(lp6775
g3121
ag729
ag5983
asg4331
(lp6776
(I704
I102
tp6777
ag3580
asg5689
(lp6778
(I303
I1959
tp6779
ag4112
asg3618
(lp6780
(I1293
I104
tp6781
ag2366
asg1947
(lp6782
g1945
ag3427
asg3141
(lp6783
(I712
I1015
tp6784
ag1507
asg788
(lp6785
(I1393
I690
tp6786
ag6415
asg5527
(lp6787
g5525
ag2616
asg4916
(lp6788
(I414
I1745
tp6789
a(I409
I1733
tp6790
ag1579
asg5421
(lp6791
(I150
I1937
tp6792
ag2996
asg6243
(lp6793
(I205
I896
tp6794
ag6713
as(I1107
I1713
tp6795
(lp6796
(I1103
I1734
tp6797
a(I1102
I1694
tp6798
asg3375
(lp6799
(I885
I51
tp6800
a(I892
I94
tp6801
asg4322
(lp6802
(I265
I251
tp6803
ag5157
asg5013
(lp6804
(I1413
I928
tp6805
ag5739
asg4187
(lp6806
(I1945
I768
tp6807
ag3317
asg5541
(lp6808
(I1085
I751
tp6809
ag343
asg182
(lp6810
g180
asg6265
(lp6811
(I1490
I524
tp6812
a(I1448
I519
tp6813
asg5524
(lp6814
(I211
I191
tp6815
ag5238
asg4821
(lp6816
(I845
I538
tp6817
ag4812
asg1962
(lp6818
(I1916
I733
tp6819
ag5845
asg5746
(lp6820
(I859
I859
tp6821
ag5049
asg3975
(lp6822
(I1634
I895
tp6823
ag514
asg4885
(lp6824
g4883
ag4797
ag3558
asg6306
(lp6825
(I624
I271
tp6826
ag3420
asg5712
(lp6827
(I1344
I1282
tp6828
ag1375
ag5763
ag4847
asg1063
(lp6829
(I97
I1973
tp6830
ag6470
asg6672
(lp6831
(I1032
I1926
tp6832
a(I997
I1952
tp6833
a(I1010
I1933
tp6834
asg4461
(lp6835
(I1167
I654
tp6836
ag4253
asg2251
(lp6837
(I1454
I1855
tp6838
ag3955
asg2850
(lp6839
(I286
I392
tp6840
ag6000
asg6203
(lp6841
(I1341
I1058
tp6842
ag956
asg4863
(lp6843
(I1307
I365
tp6844
ag1158
asg5966
(lp6845
(I793
I1895
tp6846
ag3735
asg6684
(lp6847
(I118
I1591
tp6848
a(I156
I1602
tp6849
asg4432
(lp6850
(I376
I1577
tp6851
ag4316
asg4519
(lp6852
(I1102
I1171
tp6853
a(I1103
I1212
tp6854
ag70
asg6353
(lp6855
(I1054
I357
tp6856
ag933
asg1525
(lp6857
(I425
I330
tp6858
a(I467
I334
tp6859
asg2461
(lp6860
(I1324
I568
tp6861
ag6042
asg6340
(lp6862
(I1851
I1853
tp6863
ag6207
asg5738
(lp6864
(I232
I1905
tp6865
ag4129
asg6434
(lp6866
(I261
I1694
tp6867
a(I257
I1702
tp6868
ag192
asg6118
(lp6869
(I1729
I918
tp6870
ag3313
asg4179
(lp6871
(I1915
I693
tp6872
a(I1951
I705
tp6873
asg4166
(lp6874
(I985
I1879
tp6875
ag3659
ag6137
asg5161
(lp6876
(I1005
I1787
tp6877
ag5601
asg1987
(lp6878
g1985
asg6431
(lp6879
g6429
ag5313
asg3167
(lp6880
g3165
ag2969
asg4225
(lp6881
(I832
I1729
tp6882
ag5053
asg6055
(lp6883
(I540
I1766
tp6884
ag6482
asg4264
(lp6885
(I166
I648
tp6886
ag6088
as(I489
I334
tp6887
(lp6888
(I467
I334
tp6889
ag650
asg353
(lp6890
(I1730
I874
tp6891
ag3222
asg1808
(lp6892
g1806
ag4033
asg5088
(lp6893
(I495
I1892
tp6894
ag4954
asg6012
(lp6895
(I1384
I428
tp6896
ag2020
asg6849
(lp6897
(I137
I1598
tp6898
ag4773
asg2408
(lp6899
(I581
I493
tp6900
ag937
asg4900
(lp6901
(I432
I1926
tp6902
ag3474
asg4367
(lp6903
(I1156
I571
tp6904
ag2715
asg3203
(lp6905
(I162
I999
tp6906
ag3521
asg4683
(lp6907
(I1350
I1416
tp6908
ag5014
asg6643
(lp6909
(I51
I932
tp6910
ag1876
ag3310
ag5631
asg4043
(lp6911
(I574
I186
tp6912
ag6436
asg1703
(lp6913
(I1796
I475
tp6914
ag5353
asg2649
(lp6915
(I1578
I425
tp6916
ag3392
asg3814
(lp6917
(I1228
I1560
tp6918
ag2100
asg1541
(lp6919
(I111
I730
tp6920
ag2190
asg50
(lp6921
(I373
I1803
tp6922
ag4312
asg4413
(lp6923
(I1698
I772
tp6924
a(I1672
I791
tp6925
ag1622
asg2757
(lp6926
g2755
ag4520
ag5800
asg3665
(lp6927
(I1514
I1999
tp6928
asg3969
(lp6929
(I1066
I1357
tp6930
ag884
as(I1728
I151
tp6931
(lp6932
(I1733
I172
tp6933
ag4720
asg6323
(lp6934
(I1200
I1910
tp6935
ag6443
asg3450
(lp6936
(I1209
I791
tp6937
ag4404
asg5502
(lp6938
(I1200
I1192
tp6939
asg4604
(lp6940
g4602
ag2426
ag3778
asg2563
(lp6941
(I252
I800
tp6942
ag5207
asg1668
(lp6943
(I349
I731
tp6944
ag5116
asg2054
(lp6945
(I430
I317
tp6946
ag1277
asg3695
(lp6947
(I665
I204
tp6948
a(I703
I188
tp6949
as(I216
I1950
tp6950
(lp6951
(I231
I1966
tp6952
ag6182
asg1206
(lp6953
(I247
I1982
tp6954
ag6950
asg4907
(lp6955
(I128
I1882
tp6956
ag6498
asg744
(lp6957
(I1106
I1675
tp6958
a(I1107
I1713
tp6959
a(I1100
I1706
tp6960
asg630
(lp6961
(I1115
I1476
tp6962
a(I1070
I1478
tp6963
asg1958
(lp6964
(I1749
I186
tp6965
ag6931
asg3047
(lp6966
(I1374
I620
tp6967
ag290
asg1242
(lp6968
(I552
I1870
tp6969
ag2564
asg5692
(lp6970
(I972
I1437
tp6971
ag3846
ag6125
asg4925
(lp6972
(I1943
I1893
tp6973
ag5683
asg6873
(lp6974
(I1933
I697
tp6975
ag3680
a(I1967
I708
tp6976
asg4082
(lp6977
(I1262
I1265
tp6978
ag4497
asg2320
(lp6979
(I1875
I356
tp6980
ag5097
asg530
(lp6981
(I672
I596
tp6982
ag3769
asg3986
(lp6983
(I694
I1856
tp6984
ag5468
asg6065
(lp6985
(I173
I1877
tp6986
ag4856
asg4366
(lp6987
g4364
ag4825
asg4448
(lp6988
(I1247
I79
tp6989
ag4245
asg5938
(lp6990
(I1719
I109
tp6991
a(I1694
I74
tp6992
asg5992
(lp6993
(I163
I1895
tp6994
ag6423
asg3564
(lp6995
(I1157
I1115
tp6996
ag2381
asg4492
(lp6997
(I615
I1784
tp6998
a(I589
I1818
tp6999
asg6992
(lp7000
(I1709
I90
tp7001
ag952
asg1948
(lp7002
(I1113
I1429
tp7003
ag2933
asg4585
(lp7004
(I1076
I578
tp7005
ag5533
asg3051
(lp7006
(I134
I767
tp7007
ag1538
asg117
(lp7008
(I401
I454
tp7009
ag4801
asg3996
(lp7010
g3994
asg3164
(lp7011
(I610
I602
tp7012
ag24
asg6859
(lp7013
(I446
I334
tp7014
ag6887
asg4111
(lp7015
(I1274
I666
tp7016
a(I1276
I625
tp7017
asg4981
(lp7018
(I432
I1981
tp7019
asg6142
(lp7020
(I62
I411
tp7021
ag1135
asg6328
(lp7022
(I815
I1991
tp7023
ag3293
asg5197
(lp7024
(I1268
I1471
tp7025
a(I1273
I1436
tp7026
asg1828
(lp7027
(I1295
I1907
tp7028
ag4705
asg1788
(lp7029
(I853
I1829
tp7030
ag1005
asg6999
(lp7031
(I602
I1801
tp7032
ag497
asg429
(lp7033
(I784
I1534
tp7034
ag4563
asg3368
(lp7035
g3366
ag5040
asg3860
(lp7036
(I495
I1649
tp7037
a(I495
I1614
tp7038
asg1146
(lp7039
(I1267
I1245
tp7040
ag4143
asg1969
(lp7041
(I263
I1997
tp7042
ag851
asg4280
(lp7043
(I1145
I1269
tp7044
a(I1106
I1271
tp7045
asg4597
(lp7046
(I250
I1065
tp7047
ag6583
asg18
(lp7048
(I610
I411
tp7049
ag5188
asg3478
(lp7050
(I431
I1890
tp7051
ag6763
asg5981
(lp7052
(I1089
I1745
tp7053
ag6795
asg5019
(lp7054
(I1531
I412
tp7055
ag3669
asg2627
(lp7056
(I37
I1785
tp7057
ag4752
asg6124
(lp7058
(I1728
I1762
tp7059
ag5828
asg3849
(lp7060
(I944
I1435
tp7061
asg1327
(lp7062
(I1319
I1985
tp7063
asg357
(lp7064
(I110
I1820
tp7065
ag2794
asg3494
(lp7066
(I265
I1072
tp7067
ag6365
asg1672
(lp7068
(I111
I1765
tp7069
a(I110
I1724
tp7070
asg1965
(lp7071
(I409
I357
tp7072
ag2778
ag5078
asg5137
(lp7073
(I1985
I639
tp7074
ag6729
asg5036
(lp7075
(I1509
I1736
tp7076
ag973
asg6976
(lp7077
(I1951
I705
tp7078
ag6547
asg3018
(lp7079
(I1307
I1581
tp7080
ag5649
asg3789
(lp7081
(I1720
I989
tp7082
a(I1704
I954
tp7083
asg6622
(lp7084
g6620
a(I88
I1027
tp7085
asg5957
(lp7086
(I272
I1870
tp7087
ag6226
asg4420
(lp7088
(I227
I952
tp7089
a(I216
I978
tp7090
ag4609
asg5624
(lp7091
(I1203
I1267
tp7092
ag5389
asg5557
(lp7093
(I143
I1739
tp7094
ag2663
asg6652
(lp7095
(I1595
I310
tp7096
ag4714
asg2154
(lp7097
(I1558
I305
tp7098
ag2887
asg1028
(lp7099
(I520
I586
tp7100
ag3026
asg7026
(lp7101
(I1271
I1453
tp7102
asg381
(lp7103
(I77
I1620
tp7104
ag224
asg6801
(lp7105
(I885
I73
tp7106
a(I901
I113
tp7107
asg3501
(lp7108
(I853
I202
tp7109
ag4272
asg6630
(lp7110
(I1663
I216
tp7111
ag2273
asg42
(lp7112
(I94
I936
tp7113
ag19
asg964
(lp7114
(I1802
I233
tp7115
ag2266
asg3251
(lp7116
(I1494
I201
tp7117
ag2165
asg305
(lp7118
(I1186
I1366
tp7119
asg2303
(lp7120
(I1813
I181
tp7121
ag5246
as(I1277
I365
tp7122
(lp7123
(I1262
I366
tp7124
ag1352
asg3106
(lp7125
(I1710
I254
tp7126
ag5453
asg3823
(lp7127
(I1202
I350
tp7128
ag1403
asg5581
(lp7129
(I1299
I205
tp7130
ag2181
asg2164
(lp7131
(I1880
I109
tp7132
ag1243
asg3886
(lp7133
(I762
I132
tp7134
ag5083
asg5492
(lp7135
(I442
I676
tp7136
ag6028
asg5833
(lp7137
(I66
I690
tp7138
ag6561
asg1691
(lp7139
(I1159
I1961
tp7140
ag1646
asg4890
(lp7141
(I1269
I1342
tp7142
ag4480
asg1297
(lp7143
(I1748
I594
tp7144
a(I1749
I632
tp7145
ag470
asg6507
(lp7146
(I1278
I1987
tp7147
asg5760
(lp7148
(I98
I264
tp7149
ag3208
asg5617
(lp7150
(I337
I979
tp7151
a(I329
I939
tp7152
a(I355
I958
tp7153
asg7083
(lp7154
(I1704
I975
tp7155
ag4154
asg5303
(lp7156
(I1295
I1540
tp7157
ag3015
asg5477
(lp7158
(I1947
I1027
tp7159
ag6066
asg1726
(lp7160
(I1975
I153
tp7161
ag6048
asg5445
(lp7162
(I810
I444
tp7163
asg597
(lp7164
g595
asg4531
(lp7165
(I174
I524
tp7166
a(I216
I512
tp7167
asg1157
(lp7168
(I1091
I225
tp7169
ag1301
asg1461
(lp7170
(I1353
I1474
tp7171
ag1344
asg6047
(lp7172
g6045
ag3970
ag1491
asg3217
(lp7173
g3215
ag1021
ag2581
asg2552
(lp7174
(I906
I82
tp7175
ag4852
asg5397
(lp7176
(I858
I1900
tp7177
ag2828
asg5872
(lp7178
(I1299
I1874
tp7179
ag1825
asg3752
(lp7180
(I144
I1633
tp7181
ag5094
asg6963
(lp7182
(I1092
I1477
tp7183
ag2305
asg4315
(lp7184
(I333
I1792
tp7185
ag5328
asg2417
(lp7186
g2415
ag591
asg1090
(lp7187
(I1454
I608
tp7188
ag6198
asg5810
(lp7189
(I658
I370
tp7190
ag6575
asg5771
(lp7191
g5769
ag4974
asg5460
(lp7192
(I78
I1563
tp7193
asg314
(lp7194
(I590
I328
tp7195
ag4985
asg1150
(lp7196
(I1695
I595
tp7197
a(I1677
I614
tp7198
a(I1715
I613
tp7199
asg2077
(lp7200
(I444
I1717
tp7201
ag5723
asg122
(lp7202
(I442
I256
tp7203
ag572
asg1919
(lp7204
(I1801
I728
tp7205
ag6292
asg7124
(lp7206
g7122
asg4778
(lp7207
(I1053
I172
tp7208
ag1101
asg5278
(lp7209
g5276
ag6640
asg5566
(lp7210
(I1705
I390
tp7211
a(I1697
I349
tp7212
asg2525
(lp7213
(I1552
I505
tp7214
ag576
asg5221
(lp7215
(I1844
I166
tp7216
ag5429
asg5562
(lp7217
(I101
I502
tp7218
ag2034
asg3386
(lp7219
(I998
I1906
tp7220
ag2920
asg5046
(lp7221
(I1898
I1717
tp7222
ag3990
asg1083
(lp7223
(I711
I1319
tp7224
ag1781
asg724
(lp7225
(I1024
I310
tp7226
ag6623
asg4338
(lp7227
(I1539
I1884
tp7228
ag2297
asg5233
(lp7229
(I248
I2011
tp7230
ag4993
asg996
(lp7231
(I1212
I255
tp7232
a(I1254
I243
tp7233
asg1223
(lp7234
(I581
I1717
tp7235
ag1661
asg5043
(lp7236
(I1626
I1960
tp7237
ag4424
asg7212
(lp7238
(I1699
I371
tp7239
ag184
asg637
(lp7240
(I763
I904
tp7241
ag5145
asg4244
(lp7242
(I573
I97
tp7243
a(I545
I126
tp7244
a(I579
I115
tp7245
as.